(dp0
S'AOL'
p1
(dp2
S'knn'
p3
(dp4
S'acc'
p5
(lp6
F0.562874251497006
aF0.562874251497006
aF0.562874251497006
aF0.562874251497006
aF0.562874251497006
aF0.562874251497006
aF0.562874251497006
aF0.562874251497006
aF0.562874251497006
aF0.562874251497006
aF0.562874251497006
aF0.562874251497006
aF0.562874251497006
aF0.562874251497006
aF0.562874251497006
aF0.562874251497006
aF0.562874251497006
aF0.562874251497006
aF0.562874251497006
aF0.562874251497006
aF0.562874251497006
aF0.562874251497006
aF0.562874251497006
aF0.562874251497006
aF0.562874251497006
asS'pre'
p7
(lp8
F0.562874251497006
aF0.562874251497006
aF0.562874251497006
aF0.562874251497006
aF0.562874251497006
aF0.562874251497006
aF0.562874251497006
aF0.562874251497006
aF0.562874251497006
aF0.562874251497006
aF0.562874251497006
aF0.562874251497006
aF0.562874251497006
aF0.562874251497006
aF0.562874251497006
aF0.562874251497006
aF0.562874251497006
aF0.562874251497006
aF0.562874251497006
aF0.562874251497006
aF0.562874251497006
aF0.562874251497006
aF0.562874251497006
aF0.562874251497006
aF0.562874251497006
asS'auc'
p9
(lp10
cnumpy.core.multiarray
scalar
p11
(cnumpy
dtype
p12
(S'f8'
p13
I0
I1
tp14
Rp15
(I3
S'<'
p16
NNNI-1
I-1
I0
tp17
bS'\x00\x00\x00\x00\x00\x00\xe0?'
p18
tp19
Rp20
ag11
(g15
S'\x00\x00\x00\x00\x00\x00\xe0?'
p21
tp22
Rp23
ag11
(g15
S'\x00\x00\x00\x00\x00\x00\xe0?'
p24
tp25
Rp26
ag11
(g15
S'\x00\x00\x00\x00\x00\x00\xe0?'
p27
tp28
Rp29
ag11
(g15
S'\x00\x00\x00\x00\x00\x00\xe0?'
p30
tp31
Rp32
ag11
(g15
S'\x00\x00\x00\x00\x00\x00\xe0?'
p33
tp34
Rp35
ag11
(g15
S'\x00\x00\x00\x00\x00\x00\xe0?'
p36
tp37
Rp38
ag11
(g15
S'\x00\x00\x00\x00\x00\x00\xe0?'
p39
tp40
Rp41
ag11
(g15
S'\x00\x00\x00\x00\x00\x00\xe0?'
p42
tp43
Rp44
ag11
(g15
S'\x00\x00\x00\x00\x00\x00\xe0?'
p45
tp46
Rp47
ag11
(g15
S'\x00\x00\x00\x00\x00\x00\xe0?'
p48
tp49
Rp50
ag11
(g15
S'\x00\x00\x00\x00\x00\x00\xe0?'
p51
tp52
Rp53
ag11
(g15
S'\x00\x00\x00\x00\x00\x00\xe0?'
p54
tp55
Rp56
ag11
(g15
S'\x00\x00\x00\x00\x00\x00\xe0?'
p57
tp58
Rp59
ag11
(g15
S'\x00\x00\x00\x00\x00\x00\xe0?'
p60
tp61
Rp62
ag11
(g15
S'\x00\x00\x00\x00\x00\x00\xe0?'
p63
tp64
Rp65
ag11
(g15
S'\x00\x00\x00\x00\x00\x00\xe0?'
p66
tp67
Rp68
ag11
(g15
S'\x00\x00\x00\x00\x00\x00\xe0?'
p69
tp70
Rp71
ag11
(g15
S'\x00\x00\x00\x00\x00\x00\xe0?'
p72
tp73
Rp74
ag11
(g15
S'\x00\x00\x00\x00\x00\x00\xe0?'
p75
tp76
Rp77
ag11
(g15
S'\x00\x00\x00\x00\x00\x00\xe0?'
p78
tp79
Rp80
ag11
(g15
S'\x00\x00\x00\x00\x00\x00\xe0?'
p81
tp82
Rp83
ag11
(g15
S'\x00\x00\x00\x00\x00\x00\xe0?'
p84
tp85
Rp86
ag11
(g15
S'\x00\x00\x00\x00\x00\x00\xe0?'
p87
tp88
Rp89
ag11
(g15
S'\x00\x00\x00\x00\x00\x00\xe0?'
p90
tp91
Rp92
asS'f1'
p93
(lp94
F0.7203065134099617
aF0.7203065134099617
aF0.7203065134099617
aF0.7203065134099617
aF0.7203065134099617
aF0.7203065134099617
aF0.7203065134099617
aF0.7203065134099617
aF0.7203065134099617
aF0.7203065134099617
aF0.7203065134099617
aF0.7203065134099617
aF0.7203065134099617
aF0.7203065134099617
aF0.7203065134099617
aF0.7203065134099617
aF0.7203065134099617
aF0.7203065134099617
aF0.7203065134099617
aF0.7203065134099617
aF0.7203065134099617
aF0.7203065134099617
aF0.7203065134099617
aF0.7203065134099617
aF0.7203065134099617
asS'pf'
p95
(lp96
F1.0
aF1.0
aF1.0
aF1.0
aF1.0
aF1.0
aF1.0
aF1.0
aF1.0
aF1.0
aF1.0
aF1.0
aF1.0
aF1.0
aF1.0
aF1.0
aF1.0
aF1.0
aF1.0
aF1.0
aF1.0
aF1.0
aF1.0
aF1.0
aF1.0
asS'rec'
p97
(lp98
F1.0
aF1.0
aF1.0
aF1.0
aF1.0
aF1.0
aF1.0
aF1.0
aF1.0
aF1.0
aF1.0
aF1.0
aF1.0
aF1.0
aF1.0
aF1.0
aF1.0
aF1.0
aF1.0
aF1.0
aF1.0
aF1.0
aF1.0
aF1.0
aF1.0
assS'rbf_svm'
p99
(dp100
g5
(lp101
F0.562874251497006
aF0.562874251497006
aF0.562874251497006
aF0.562874251497006
aF0.562874251497006
aF0.562874251497006
aF0.562874251497006
aF0.562874251497006
aF0.562874251497006
aF0.562874251497006
aF0.562874251497006
aF0.562874251497006
aF0.562874251497006
aF0.562874251497006
aF0.562874251497006
aF0.562874251497006
aF0.562874251497006
aF0.562874251497006
aF0.562874251497006
aF0.562874251497006
aF0.562874251497006
aF0.562874251497006
aF0.562874251497006
aF0.562874251497006
aF0.562874251497006
asg7
(lp102
F0.562874251497006
aF0.562874251497006
aF0.562874251497006
aF0.562874251497006
aF0.562874251497006
aF0.562874251497006
aF0.562874251497006
aF0.562874251497006
aF0.562874251497006
aF0.562874251497006
aF0.562874251497006
aF0.562874251497006
aF0.562874251497006
aF0.562874251497006
aF0.562874251497006
aF0.562874251497006
aF0.562874251497006
aF0.562874251497006
aF0.562874251497006
aF0.562874251497006
aF0.562874251497006
aF0.562874251497006
aF0.562874251497006
aF0.562874251497006
aF0.562874251497006
asg9
(lp103
g11
(g15
S'\x00\x00\x00\x00\x00\x00\xe0?'
p104
tp105
Rp106
ag11
(g15
S'\x00\x00\x00\x00\x00\x00\xe0?'
p107
tp108
Rp109
ag11
(g15
S'\x00\x00\x00\x00\x00\x00\xe0?'
p110
tp111
Rp112
ag11
(g15
S'\x00\x00\x00\x00\x00\x00\xe0?'
p113
tp114
Rp115
ag11
(g15
S'\x00\x00\x00\x00\x00\x00\xe0?'
p116
tp117
Rp118
ag11
(g15
S'\x00\x00\x00\x00\x00\x00\xe0?'
p119
tp120
Rp121
ag11
(g15
S'\x00\x00\x00\x00\x00\x00\xe0?'
p122
tp123
Rp124
ag11
(g15
S'\x00\x00\x00\x00\x00\x00\xe0?'
p125
tp126
Rp127
ag11
(g15
S'\x00\x00\x00\x00\x00\x00\xe0?'
p128
tp129
Rp130
ag11
(g15
S'\x00\x00\x00\x00\x00\x00\xe0?'
p131
tp132
Rp133
ag11
(g15
S'\x00\x00\x00\x00\x00\x00\xe0?'
p134
tp135
Rp136
ag11
(g15
S'\x00\x00\x00\x00\x00\x00\xe0?'
p137
tp138
Rp139
ag11
(g15
S'\x00\x00\x00\x00\x00\x00\xe0?'
p140
tp141
Rp142
ag11
(g15
S'\x00\x00\x00\x00\x00\x00\xe0?'
p143
tp144
Rp145
ag11
(g15
S'\x00\x00\x00\x00\x00\x00\xe0?'
p146
tp147
Rp148
ag11
(g15
S'\x00\x00\x00\x00\x00\x00\xe0?'
p149
tp150
Rp151
ag11
(g15
S'\x00\x00\x00\x00\x00\x00\xe0?'
p152
tp153
Rp154
ag11
(g15
S'\x00\x00\x00\x00\x00\x00\xe0?'
p155
tp156
Rp157
ag11
(g15
S'\x00\x00\x00\x00\x00\x00\xe0?'
p158
tp159
Rp160
ag11
(g15
S'\x00\x00\x00\x00\x00\x00\xe0?'
p161
tp162
Rp163
ag11
(g15
S'\x00\x00\x00\x00\x00\x00\xe0?'
p164
tp165
Rp166
ag11
(g15
S'\x00\x00\x00\x00\x00\x00\xe0?'
p167
tp168
Rp169
ag11
(g15
S'\x00\x00\x00\x00\x00\x00\xe0?'
p170
tp171
Rp172
ag11
(g15
S'\x00\x00\x00\x00\x00\x00\xe0?'
p173
tp174
Rp175
ag11
(g15
S'\x00\x00\x00\x00\x00\x00\xe0?'
p176
tp177
Rp178
asg93
(lp179
F0.7203065134099617
aF0.7203065134099617
aF0.7203065134099617
aF0.7203065134099617
aF0.7203065134099617
aF0.7203065134099617
aF0.7203065134099617
aF0.7203065134099617
aF0.7203065134099617
aF0.7203065134099617
aF0.7203065134099617
aF0.7203065134099617
aF0.7203065134099617
aF0.7203065134099617
aF0.7203065134099617
aF0.7203065134099617
aF0.7203065134099617
aF0.7203065134099617
aF0.7203065134099617
aF0.7203065134099617
aF0.7203065134099617
aF0.7203065134099617
aF0.7203065134099617
aF0.7203065134099617
aF0.7203065134099617
asg95
(lp180
F1.0
aF1.0
aF1.0
aF1.0
aF1.0
aF1.0
aF1.0
aF1.0
aF1.0
aF1.0
aF1.0
aF1.0
aF1.0
aF1.0
aF1.0
aF1.0
aF1.0
aF1.0
aF1.0
aF1.0
aF1.0
aF1.0
aF1.0
aF1.0
aF1.0
asg97
(lp181
F1.0
aF1.0
aF1.0
aF1.0
aF1.0
aF1.0
aF1.0
aF1.0
aF1.0
aF1.0
aF1.0
aF1.0
aF1.0
aF1.0
aF1.0
aF1.0
aF1.0
aF1.0
aF1.0
aF1.0
aF1.0
aF1.0
aF1.0
aF1.0
aF1.0
assS'lin_svm'
p182
(dp183
g5
(lp184
F0.562874251497006
aF0.562874251497006
aF0.562874251497006
aF0.562874251497006
aF0.562874251497006
aF0.562874251497006
aF0.562874251497006
aF0.562874251497006
aF0.562874251497006
aF0.562874251497006
aF0.562874251497006
aF0.562874251497006
aF0.562874251497006
aF0.562874251497006
aF0.562874251497006
aF0.562874251497006
aF0.562874251497006
aF0.562874251497006
aF0.562874251497006
aF0.562874251497006
aF0.562874251497006
aF0.562874251497006
aF0.562874251497006
aF0.562874251497006
aF0.562874251497006
asg7
(lp185
F0.562874251497006
aF0.562874251497006
aF0.562874251497006
aF0.562874251497006
aF0.562874251497006
aF0.562874251497006
aF0.562874251497006
aF0.562874251497006
aF0.562874251497006
aF0.562874251497006
aF0.562874251497006
aF0.562874251497006
aF0.562874251497006
aF0.562874251497006
aF0.562874251497006
aF0.562874251497006
aF0.562874251497006
aF0.562874251497006
aF0.562874251497006
aF0.562874251497006
aF0.562874251497006
aF0.562874251497006
aF0.562874251497006
aF0.562874251497006
aF0.562874251497006
asg9
(lp186
g11
(g15
S'\x00\x00\x00\x00\x00\x00\xe0?'
p187
tp188
Rp189
ag11
(g15
S'\x00\x00\x00\x00\x00\x00\xe0?'
p190
tp191
Rp192
ag11
(g15
S'\x00\x00\x00\x00\x00\x00\xe0?'
p193
tp194
Rp195
ag11
(g15
S'\x00\x00\x00\x00\x00\x00\xe0?'
p196
tp197
Rp198
ag11
(g15
S'\x00\x00\x00\x00\x00\x00\xe0?'
p199
tp200
Rp201
ag11
(g15
S'\x00\x00\x00\x00\x00\x00\xe0?'
p202
tp203
Rp204
ag11
(g15
S'\x00\x00\x00\x00\x00\x00\xe0?'
p205
tp206
Rp207
ag11
(g15
S'\x00\x00\x00\x00\x00\x00\xe0?'
p208
tp209
Rp210
ag11
(g15
S'\x00\x00\x00\x00\x00\x00\xe0?'
p211
tp212
Rp213
ag11
(g15
S'\x00\x00\x00\x00\x00\x00\xe0?'
p214
tp215
Rp216
ag11
(g15
S'\x00\x00\x00\x00\x00\x00\xe0?'
p217
tp218
Rp219
ag11
(g15
S'\x00\x00\x00\x00\x00\x00\xe0?'
p220
tp221
Rp222
ag11
(g15
S'\x00\x00\x00\x00\x00\x00\xe0?'
p223
tp224
Rp225
ag11
(g15
S'\x00\x00\x00\x00\x00\x00\xe0?'
p226
tp227
Rp228
ag11
(g15
S'\x00\x00\x00\x00\x00\x00\xe0?'
p229
tp230
Rp231
ag11
(g15
S'\x00\x00\x00\x00\x00\x00\xe0?'
p232
tp233
Rp234
ag11
(g15
S'\x00\x00\x00\x00\x00\x00\xe0?'
p235
tp236
Rp237
ag11
(g15
S'\x00\x00\x00\x00\x00\x00\xe0?'
p238
tp239
Rp240
ag11
(g15
S'\x00\x00\x00\x00\x00\x00\xe0?'
p241
tp242
Rp243
ag11
(g15
S'\x00\x00\x00\x00\x00\x00\xe0?'
p244
tp245
Rp246
ag11
(g15
S'\x00\x00\x00\x00\x00\x00\xe0?'
p247
tp248
Rp249
ag11
(g15
S'\x00\x00\x00\x00\x00\x00\xe0?'
p250
tp251
Rp252
ag11
(g15
S'\x00\x00\x00\x00\x00\x00\xe0?'
p253
tp254
Rp255
ag11
(g15
S'\x00\x00\x00\x00\x00\x00\xe0?'
p256
tp257
Rp258
ag11
(g15
S'\x00\x00\x00\x00\x00\x00\xe0?'
p259
tp260
Rp261
asg93
(lp262
F0.7203065134099617
aF0.7203065134099617
aF0.7203065134099617
aF0.7203065134099617
aF0.7203065134099617
aF0.7203065134099617
aF0.7203065134099617
aF0.7203065134099617
aF0.7203065134099617
aF0.7203065134099617
aF0.7203065134099617
aF0.7203065134099617
aF0.7203065134099617
aF0.7203065134099617
aF0.7203065134099617
aF0.7203065134099617
aF0.7203065134099617
aF0.7203065134099617
aF0.7203065134099617
aF0.7203065134099617
aF0.7203065134099617
aF0.7203065134099617
aF0.7203065134099617
aF0.7203065134099617
aF0.7203065134099617
asg95
(lp263
F1.0
aF1.0
aF1.0
aF1.0
aF1.0
aF1.0
aF1.0
aF1.0
aF1.0
aF1.0
aF1.0
aF1.0
aF1.0
aF1.0
aF1.0
aF1.0
aF1.0
aF1.0
aF1.0
aF1.0
aF1.0
aF1.0
aF1.0
aF1.0
aF1.0
asg97
(lp264
F1.0
aF1.0
aF1.0
aF1.0
aF1.0
aF1.0
aF1.0
aF1.0
aF1.0
aF1.0
aF1.0
aF1.0
aF1.0
aF1.0
aF1.0
aF1.0
aF1.0
aF1.0
aF1.0
aF1.0
aF1.0
aF1.0
aF1.0
aF1.0
aF1.0
assS'log_reg'
p265
(dp266
g5
(lp267
F0.562874251497006
aF0.562874251497006
aF0.562874251497006
aF0.562874251497006
aF0.562874251497006
aF0.562874251497006
aF0.562874251497006
aF0.562874251497006
aF0.562874251497006
aF0.562874251497006
aF0.562874251497006
aF0.562874251497006
aF0.562874251497006
aF0.562874251497006
aF0.562874251497006
aF0.562874251497006
aF0.562874251497006
aF0.562874251497006
aF0.562874251497006
aF0.562874251497006
aF0.562874251497006
aF0.562874251497006
aF0.562874251497006
aF0.562874251497006
aF0.562874251497006
asg7
(lp268
F0.562874251497006
aF0.562874251497006
aF0.562874251497006
aF0.562874251497006
aF0.562874251497006
aF0.562874251497006
aF0.562874251497006
aF0.562874251497006
aF0.562874251497006
aF0.562874251497006
aF0.562874251497006
aF0.562874251497006
aF0.562874251497006
aF0.562874251497006
aF0.562874251497006
aF0.562874251497006
aF0.562874251497006
aF0.562874251497006
aF0.562874251497006
aF0.562874251497006
aF0.562874251497006
aF0.562874251497006
aF0.562874251497006
aF0.562874251497006
aF0.562874251497006
asg9
(lp269
g11
(g15
S'\x00\x00\x00\x00\x00\x00\xe0?'
p270
tp271
Rp272
ag11
(g15
S'\x00\x00\x00\x00\x00\x00\xe0?'
p273
tp274
Rp275
ag11
(g15
S'\x00\x00\x00\x00\x00\x00\xe0?'
p276
tp277
Rp278
ag11
(g15
S'\x00\x00\x00\x00\x00\x00\xe0?'
p279
tp280
Rp281
ag11
(g15
S'\x00\x00\x00\x00\x00\x00\xe0?'
p282
tp283
Rp284
ag11
(g15
S'\x00\x00\x00\x00\x00\x00\xe0?'
p285
tp286
Rp287
ag11
(g15
S'\x00\x00\x00\x00\x00\x00\xe0?'
p288
tp289
Rp290
ag11
(g15
S'\x00\x00\x00\x00\x00\x00\xe0?'
p291
tp292
Rp293
ag11
(g15
S'\x00\x00\x00\x00\x00\x00\xe0?'
p294
tp295
Rp296
ag11
(g15
S'\x00\x00\x00\x00\x00\x00\xe0?'
p297
tp298
Rp299
ag11
(g15
S'\x00\x00\x00\x00\x00\x00\xe0?'
p300
tp301
Rp302
ag11
(g15
S'\x00\x00\x00\x00\x00\x00\xe0?'
p303
tp304
Rp305
ag11
(g15
S'\x00\x00\x00\x00\x00\x00\xe0?'
p306
tp307
Rp308
ag11
(g15
S'\x00\x00\x00\x00\x00\x00\xe0?'
p309
tp310
Rp311
ag11
(g15
S'\x00\x00\x00\x00\x00\x00\xe0?'
p312
tp313
Rp314
ag11
(g15
S'\x00\x00\x00\x00\x00\x00\xe0?'
p315
tp316
Rp317
ag11
(g15
S'\x00\x00\x00\x00\x00\x00\xe0?'
p318
tp319
Rp320
ag11
(g15
S'\x00\x00\x00\x00\x00\x00\xe0?'
p321
tp322
Rp323
ag11
(g15
S'\x00\x00\x00\x00\x00\x00\xe0?'
p324
tp325
Rp326
ag11
(g15
S'\x00\x00\x00\x00\x00\x00\xe0?'
p327
tp328
Rp329
ag11
(g15
S'\x00\x00\x00\x00\x00\x00\xe0?'
p330
tp331
Rp332
ag11
(g15
S'\x00\x00\x00\x00\x00\x00\xe0?'
p333
tp334
Rp335
ag11
(g15
S'\x00\x00\x00\x00\x00\x00\xe0?'
p336
tp337
Rp338
ag11
(g15
S'\x00\x00\x00\x00\x00\x00\xe0?'
p339
tp340
Rp341
ag11
(g15
S'\x00\x00\x00\x00\x00\x00\xe0?'
p342
tp343
Rp344
asg93
(lp345
F0.7203065134099617
aF0.7203065134099617
aF0.7203065134099617
aF0.7203065134099617
aF0.7203065134099617
aF0.7203065134099617
aF0.7203065134099617
aF0.7203065134099617
aF0.7203065134099617
aF0.7203065134099617
aF0.7203065134099617
aF0.7203065134099617
aF0.7203065134099617
aF0.7203065134099617
aF0.7203065134099617
aF0.7203065134099617
aF0.7203065134099617
aF0.7203065134099617
aF0.7203065134099617
aF0.7203065134099617
aF0.7203065134099617
aF0.7203065134099617
aF0.7203065134099617
aF0.7203065134099617
aF0.7203065134099617
asg95
(lp346
F1.0
aF1.0
aF1.0
aF1.0
aF1.0
aF1.0
aF1.0
aF1.0
aF1.0
aF1.0
aF1.0
aF1.0
aF1.0
aF1.0
aF1.0
aF1.0
aF1.0
aF1.0
aF1.0
aF1.0
aF1.0
aF1.0
aF1.0
aF1.0
aF1.0
asg97
(lp347
F1.0
aF1.0
aF1.0
aF1.0
aF1.0
aF1.0
aF1.0
aF1.0
aF1.0
aF1.0
aF1.0
aF1.0
aF1.0
aF1.0
aF1.0
aF1.0
aF1.0
aF1.0
aF1.0
aF1.0
aF1.0
aF1.0
aF1.0
aF1.0
aF1.0
assS'naive_bayes'
p348
(dp349
g5
(lp350
F0.47305389221556887
aF0.47305389221556887
aF0.47305389221556887
aF0.47305389221556887
aF0.6826347305389222
aF0.47305389221556887
aF0.47305389221556887
aF0.47305389221556887
aF0.47305389221556887
aF0.47305389221556887
aF0.6826347305389222
aF0.47305389221556887
aF0.47305389221556887
aF0.47305389221556887
aF0.47305389221556887
aF0.47305389221556887
aF0.47305389221556887
aF0.47305389221556887
aF0.47305389221556887
aF0.47305389221556887
aF0.47305389221556887
aF0.47305389221556887
aF0.47305389221556887
aF0.47305389221556887
aF0.47305389221556887
asg7
(lp351
F1.0
aF1.0
aF1.0
aF1.0
aF1.0
aF1.0
aF1.0
aF1.0
aF1.0
aF1.0
aF1.0
aF1.0
aF1.0
aF1.0
aF1.0
aF1.0
aF1.0
aF1.0
aF1.0
aF1.0
aF1.0
aF1.0
aF1.0
aF1.0
aF1.0
asg9
(lp352
g11
(g15
S'\xc4\xe4\nbr\x05\xe1?'
p353
tp354
Rp355
ag11
(g15
S'\xc4\xe4\nbr\x05\xe1?'
p356
tp357
Rp358
ag11
(g15
S'\xc4\xe4\nbr\x05\xe1?'
p359
tp360
Rp361
ag11
(g15
S'\xc4\xe4\nbr\x05\xe1?'
p362
tp363
Rp364
ag11
(g15
S'<\x1b\xf5\x9d\x8d\xfa\xe6?'
p365
tp366
Rp367
ag11
(g15
S'\xc4\xe4\nbr\x05\xe1?'
p368
tp369
Rp370
ag11
(g15
S'\xc4\xe4\nbr\x05\xe1?'
p371
tp372
Rp373
ag11
(g15
S'\xc4\xe4\nbr\x05\xe1?'
p374
tp375
Rp376
ag11
(g15
S'\xc4\xe4\nbr\x05\xe1?'
p377
tp378
Rp379
ag11
(g15
S'\xc4\xe4\nbr\x05\xe1?'
p380
tp381
Rp382
ag11
(g15
S'<\x1b\xf5\x9d\x8d\xfa\xe6?'
p383
tp384
Rp385
ag11
(g15
S'\xc4\xe4\nbr\x05\xe1?'
p386
tp387
Rp388
ag11
(g15
S'\xc4\xe4\nbr\x05\xe1?'
p389
tp390
Rp391
ag11
(g15
S'\xc4\xe4\nbr\x05\xe1?'
p392
tp393
Rp394
ag11
(g15
S'\xc4\xe4\nbr\x05\xe1?'
p395
tp396
Rp397
ag11
(g15
S'\xc4\xe4\nbr\x05\xe1?'
p398
tp399
Rp400
ag11
(g15
S'\xc4\xe4\nbr\x05\xe1?'
p401
tp402
Rp403
ag11
(g15
S'\xc4\xe4\nbr\x05\xe1?'
p404
tp405
Rp406
ag11
(g15
S'\xc4\xe4\nbr\x05\xe1?'
p407
tp408
Rp409
ag11
(g15
S'\xc4\xe4\nbr\x05\xe1?'
p410
tp411
Rp412
ag11
(g15
S'\xc4\xe4\nbr\x05\xe1?'
p413
tp414
Rp415
ag11
(g15
S'\xc4\xe4\nbr\x05\xe1?'
p416
tp417
Rp418
ag11
(g15
S'\xc4\xe4\nbr\x05\xe1?'
p419
tp420
Rp421
ag11
(g15
S'\xc4\xe4\nbr\x05\xe1?'
p422
tp423
Rp424
ag11
(g15
S'\xc4\xe4\nbr\x05\xe1?'
p425
tp426
Rp427
asg93
(lp428
F0.12
aF0.12
aF0.12
aF0.12
aF0.6074074074074074
aF0.12
aF0.12
aF0.12
aF0.12
aF0.12
aF0.6074074074074074
aF0.12
aF0.12
aF0.12
aF0.12
aF0.12
aF0.12
aF0.12
aF0.12
aF0.12
aF0.12
aF0.12
aF0.12
aF0.12
aF0.12
asg95
(lp429
F0.0
aF0.0
aF0.0
aF0.0
aF0.0
aF0.0
aF0.0
aF0.0
aF0.0
aF0.0
aF0.0
aF0.0
aF0.0
aF0.0
aF0.0
aF0.0
aF0.0
aF0.0
aF0.0
aF0.0
aF0.0
aF0.0
aF0.0
aF0.0
aF0.0
asg97
(lp430
F0.06382978723404255
aF0.06382978723404255
aF0.06382978723404255
aF0.06382978723404255
aF0.43617021276595747
aF0.06382978723404255
aF0.06382978723404255
aF0.06382978723404255
aF0.06382978723404255
aF0.06382978723404255
aF0.43617021276595747
aF0.06382978723404255
aF0.06382978723404255
aF0.06382978723404255
aF0.06382978723404255
aF0.06382978723404255
aF0.06382978723404255
aF0.06382978723404255
aF0.06382978723404255
aF0.06382978723404255
aF0.06382978723404255
aF0.06382978723404255
aF0.06382978723404255
aF0.06382978723404255
aF0.06382978723404255
assS'ran_forest'
p431
(dp432
g5
(lp433
F0.562874251497006
aF0.562874251497006
aF0.562874251497006
aF0.562874251497006
aF0.562874251497006
aF0.562874251497006
aF0.562874251497006
aF0.562874251497006
aF0.562874251497006
aF0.562874251497006
aF0.562874251497006
aF0.562874251497006
aF0.562874251497006
aF0.562874251497006
aF0.562874251497006
aF0.562874251497006
aF0.562874251497006
aF0.562874251497006
aF0.562874251497006
aF0.562874251497006
aF0.562874251497006
aF0.562874251497006
aF0.562874251497006
aF0.562874251497006
aF0.562874251497006
asg7
(lp434
F0.562874251497006
aF0.562874251497006
aF0.562874251497006
aF0.562874251497006
aF0.562874251497006
aF0.562874251497006
aF0.562874251497006
aF0.562874251497006
aF0.562874251497006
aF0.562874251497006
aF0.562874251497006
aF0.562874251497006
aF0.562874251497006
aF0.562874251497006
aF0.562874251497006
aF0.562874251497006
aF0.562874251497006
aF0.562874251497006
aF0.562874251497006
aF0.562874251497006
aF0.562874251497006
aF0.562874251497006
aF0.562874251497006
aF0.562874251497006
aF0.562874251497006
asg9
(lp435
g11
(g15
S'\x00\x00\x00\x00\x00\x00\xe0?'
p436
tp437
Rp438
ag11
(g15
S'\x00\x00\x00\x00\x00\x00\xe0?'
p439
tp440
Rp441
ag11
(g15
S'\x00\x00\x00\x00\x00\x00\xe0?'
p442
tp443
Rp444
ag11
(g15
S'\x00\x00\x00\x00\x00\x00\xe0?'
p445
tp446
Rp447
ag11
(g15
S'\x00\x00\x00\x00\x00\x00\xe0?'
p448
tp449
Rp450
ag11
(g15
S'\x00\x00\x00\x00\x00\x00\xe0?'
p451
tp452
Rp453
ag11
(g15
S'\x00\x00\x00\x00\x00\x00\xe0?'
p454
tp455
Rp456
ag11
(g15
S'\x00\x00\x00\x00\x00\x00\xe0?'
p457
tp458
Rp459
ag11
(g15
S'\x00\x00\x00\x00\x00\x00\xe0?'
p460
tp461
Rp462
ag11
(g15
S'\x00\x00\x00\x00\x00\x00\xe0?'
p463
tp464
Rp465
ag11
(g15
S'\x00\x00\x00\x00\x00\x00\xe0?'
p466
tp467
Rp468
ag11
(g15
S'\x00\x00\x00\x00\x00\x00\xe0?'
p469
tp470
Rp471
ag11
(g15
S'\x00\x00\x00\x00\x00\x00\xe0?'
p472
tp473
Rp474
ag11
(g15
S'\x00\x00\x00\x00\x00\x00\xe0?'
p475
tp476
Rp477
ag11
(g15
S'\x00\x00\x00\x00\x00\x00\xe0?'
p478
tp479
Rp480
ag11
(g15
S'\x00\x00\x00\x00\x00\x00\xe0?'
p481
tp482
Rp483
ag11
(g15
S'\x00\x00\x00\x00\x00\x00\xe0?'
p484
tp485
Rp486
ag11
(g15
S'\x00\x00\x00\x00\x00\x00\xe0?'
p487
tp488
Rp489
ag11
(g15
S'\x00\x00\x00\x00\x00\x00\xe0?'
p490
tp491
Rp492
ag11
(g15
S'\x00\x00\x00\x00\x00\x00\xe0?'
p493
tp494
Rp495
ag11
(g15
S'\x00\x00\x00\x00\x00\x00\xe0?'
p496
tp497
Rp498
ag11
(g15
S'\x00\x00\x00\x00\x00\x00\xe0?'
p499
tp500
Rp501
ag11
(g15
S'\x00\x00\x00\x00\x00\x00\xe0?'
p502
tp503
Rp504
ag11
(g15
S'\x00\x00\x00\x00\x00\x00\xe0?'
p505
tp506
Rp507
ag11
(g15
S'\x00\x00\x00\x00\x00\x00\xe0?'
p508
tp509
Rp510
asg93
(lp511
F0.7203065134099617
aF0.7203065134099617
aF0.7203065134099617
aF0.7203065134099617
aF0.7203065134099617
aF0.7203065134099617
aF0.7203065134099617
aF0.7203065134099617
aF0.7203065134099617
aF0.7203065134099617
aF0.7203065134099617
aF0.7203065134099617
aF0.7203065134099617
aF0.7203065134099617
aF0.7203065134099617
aF0.7203065134099617
aF0.7203065134099617
aF0.7203065134099617
aF0.7203065134099617
aF0.7203065134099617
aF0.7203065134099617
aF0.7203065134099617
aF0.7203065134099617
aF0.7203065134099617
aF0.7203065134099617
asg95
(lp512
F1.0
aF1.0
aF1.0
aF1.0
aF1.0
aF1.0
aF1.0
aF1.0
aF1.0
aF1.0
aF1.0
aF1.0
aF1.0
aF1.0
aF1.0
aF1.0
aF1.0
aF1.0
aF1.0
aF1.0
aF1.0
aF1.0
aF1.0
aF1.0
aF1.0
asg97
(lp513
F1.0
aF1.0
aF1.0
aF1.0
aF1.0
aF1.0
aF1.0
aF1.0
aF1.0
aF1.0
aF1.0
aF1.0
aF1.0
aF1.0
aF1.0
aF1.0
aF1.0
aF1.0
aF1.0
aF1.0
aF1.0
aF1.0
aF1.0
aF1.0
aF1.0
assS'dec_tree'
p514
(dp515
g5
(lp516
F0.562874251497006
aF0.562874251497006
aF0.562874251497006
aF0.562874251497006
aF0.562874251497006
aF0.562874251497006
aF0.562874251497006
aF0.562874251497006
aF0.562874251497006
aF0.562874251497006
aF0.562874251497006
aF0.562874251497006
aF0.562874251497006
aF0.5568862275449101
aF0.562874251497006
aF0.5568862275449101
aF0.562874251497006
aF0.562874251497006
aF0.562874251497006
aF0.562874251497006
aF0.5568862275449101
aF0.562874251497006
aF0.562874251497006
aF0.562874251497006
aF0.562874251497006
asg7
(lp517
F0.562874251497006
aF0.562874251497006
aF0.562874251497006
aF0.562874251497006
aF0.562874251497006
aF0.562874251497006
aF0.562874251497006
aF0.562874251497006
aF0.562874251497006
aF0.562874251497006
aF0.562874251497006
aF0.562874251497006
aF0.562874251497006
aF0.5602409638554217
aF0.562874251497006
aF0.5602409638554217
aF0.562874251497006
aF0.562874251497006
aF0.562874251497006
aF0.562874251497006
aF0.5602409638554217
aF0.562874251497006
aF0.562874251497006
aF0.562874251497006
aF0.562874251497006
asg9
(lp518
g11
(g15
S'\x00\x00\x00\x00\x00\x00\xe0?'
p519
tp520
Rp521
ag11
(g15
S'\x00\x00\x00\x00\x00\x00\xe0?'
p522
tp523
Rp524
ag11
(g15
S'\x00\x00\x00\x00\x00\x00\xe0?'
p525
tp526
Rp527
ag11
(g15
S'\x00\x00\x00\x00\x00\x00\xe0?'
p528
tp529
Rp530
ag11
(g15
S'\x00\x00\x00\x00\x00\x00\xe0?'
p531
tp532
Rp533
ag11
(g15
S'\x00\x00\x00\x00\x00\x00\xe0?'
p534
tp535
Rp536
ag11
(g15
S'\x00\x00\x00\x00\x00\x00\xe0?'
p537
tp538
Rp539
ag11
(g15
S'\x00\x00\x00\x00\x00\x00\xe0?'
p540
tp541
Rp542
ag11
(g15
S'\x00\x00\x00\x00\x00\x00\xe0?'
p543
tp544
Rp545
ag11
(g15
S'\x00\x00\x00\x00\x00\x00\xe0?'
p546
tp547
Rp548
ag11
(g15
S'\x00\x00\x00\x00\x00\x00\xe0?'
p549
tp550
Rp551
ag11
(g15
S'\x00\x00\x00\x00\x00\x00\xe0?'
p552
tp553
Rp554
ag11
(g15
S'\x00\x00\x00\x00\x00\x00\xe0?'
p555
tp556
Rp557
ag11
(g15
S'\xbf\xb3Q\xdf\xd9\xa8\xdf?'
p558
tp559
Rp560
ag11
(g15
S'\x00\x00\x00\x00\x00\x00\xe0?'
p561
tp562
Rp563
ag11
(g15
S'\xbf\xb3Q\xdf\xd9\xa8\xdf?'
p564
tp565
Rp566
ag11
(g15
S'\x00\x00\x00\x00\x00\x00\xe0?'
p567
tp568
Rp569
ag11
(g15
S'\x00\x00\x00\x00\x00\x00\xe0?'
p570
tp571
Rp572
ag11
(g15
S'\x00\x00\x00\x00\x00\x00\xe0?'
p573
tp574
Rp575
ag11
(g15
S'\x00\x00\x00\x00\x00\x00\xe0?'
p576
tp577
Rp578
ag11
(g15
S'\xbf\xb3Q\xdf\xd9\xa8\xdf?'
p579
tp580
Rp581
ag11
(g15
S'\x00\x00\x00\x00\x00\x00\xe0?'
p582
tp583
Rp584
ag11
(g15
S'\x00\x00\x00\x00\x00\x00\xe0?'
p585
tp586
Rp587
ag11
(g15
S'\x00\x00\x00\x00\x00\x00\xe0?'
p588
tp589
Rp590
ag11
(g15
S'\x00\x00\x00\x00\x00\x00\xe0?'
p591
tp592
Rp593
asg93
(lp594
F0.7203065134099617
aF0.7203065134099617
aF0.7203065134099617
aF0.7203065134099617
aF0.7203065134099617
aF0.7203065134099617
aF0.7203065134099617
aF0.7203065134099617
aF0.7203065134099617
aF0.7203065134099617
aF0.7203065134099617
aF0.7203065134099617
aF0.7203065134099617
aF0.7153846153846154
aF0.7203065134099617
aF0.7153846153846154
aF0.7203065134099617
aF0.7203065134099617
aF0.7203065134099617
aF0.7203065134099617
aF0.7153846153846154
aF0.7203065134099617
aF0.7203065134099617
aF0.7203065134099617
aF0.7203065134099617
asg95
(lp595
F1.0
aF1.0
aF1.0
aF1.0
aF1.0
aF1.0
aF1.0
aF1.0
aF1.0
aF1.0
aF1.0
aF1.0
aF1.0
aF1.0
aF1.0
aF1.0
aF1.0
aF1.0
aF1.0
aF1.0
aF1.0
aF1.0
aF1.0
aF1.0
aF1.0
asg97
(lp596
F1.0
aF1.0
aF1.0
aF1.0
aF1.0
aF1.0
aF1.0
aF1.0
aF1.0
aF1.0
aF1.0
aF1.0
aF1.0
aF0.9893617021276596
aF1.0
aF0.9893617021276596
aF1.0
aF1.0
aF1.0
aF1.0
aF0.9893617021276596
aF1.0
aF1.0
aF1.0
aF1.0
asssS'Apple'
p597
(dp598
g3
(dp599
g5
(lp600
F0.49333333333333335
aF0.49333333333333335
aF0.49333333333333335
aF0.49333333333333335
aF0.49333333333333335
aF0.49333333333333335
aF0.49333333333333335
aF0.49333333333333335
aF0.49333333333333335
aF0.49333333333333335
aF0.49333333333333335
aF0.49333333333333335
aF0.49333333333333335
aF0.49333333333333335
aF0.49333333333333335
aF0.49333333333333335
aF0.49333333333333335
aF0.49333333333333335
aF0.49333333333333335
aF0.49333333333333335
aF0.49333333333333335
aF0.49333333333333335
aF0.49333333333333335
aF0.49333333333333335
aF0.49333333333333335
asg7
(lp601
F0.49333333333333335
aF0.49333333333333335
aF0.49333333333333335
aF0.49333333333333335
aF0.49333333333333335
aF0.49333333333333335
aF0.49333333333333335
aF0.49333333333333335
aF0.49333333333333335
aF0.49333333333333335
aF0.49333333333333335
aF0.49333333333333335
aF0.49333333333333335
aF0.49333333333333335
aF0.49333333333333335
aF0.49333333333333335
aF0.49333333333333335
aF0.49333333333333335
aF0.49333333333333335
aF0.49333333333333335
aF0.49333333333333335
aF0.49333333333333335
aF0.49333333333333335
aF0.49333333333333335
aF0.49333333333333335
asg9
(lp602
g11
(g15
S'\x00\x00\x00\x00\x00\x00\xe0?'
p603
tp604
Rp605
ag11
(g15
S'\x00\x00\x00\x00\x00\x00\xe0?'
p606
tp607
Rp608
ag11
(g15
S'\x00\x00\x00\x00\x00\x00\xe0?'
p609
tp610
Rp611
ag11
(g15
S'\x00\x00\x00\x00\x00\x00\xe0?'
p612
tp613
Rp614
ag11
(g15
S'\x00\x00\x00\x00\x00\x00\xe0?'
p615
tp616
Rp617
ag11
(g15
S'\x00\x00\x00\x00\x00\x00\xe0?'
p618
tp619
Rp620
ag11
(g15
S'\x00\x00\x00\x00\x00\x00\xe0?'
p621
tp622
Rp623
ag11
(g15
S'\x00\x00\x00\x00\x00\x00\xe0?'
p624
tp625
Rp626
ag11
(g15
S'\x00\x00\x00\x00\x00\x00\xe0?'
p627
tp628
Rp629
ag11
(g15
S'\x00\x00\x00\x00\x00\x00\xe0?'
p630
tp631
Rp632
ag11
(g15
S'\x00\x00\x00\x00\x00\x00\xe0?'
p633
tp634
Rp635
ag11
(g15
S'\x00\x00\x00\x00\x00\x00\xe0?'
p636
tp637
Rp638
ag11
(g15
S'\x00\x00\x00\x00\x00\x00\xe0?'
p639
tp640
Rp641
ag11
(g15
S'\x00\x00\x00\x00\x00\x00\xe0?'
p642
tp643
Rp644
ag11
(g15
S'\x00\x00\x00\x00\x00\x00\xe0?'
p645
tp646
Rp647
ag11
(g15
S'\x00\x00\x00\x00\x00\x00\xe0?'
p648
tp649
Rp650
ag11
(g15
S'\x00\x00\x00\x00\x00\x00\xe0?'
p651
tp652
Rp653
ag11
(g15
S'\x00\x00\x00\x00\x00\x00\xe0?'
p654
tp655
Rp656
ag11
(g15
S'\x00\x00\x00\x00\x00\x00\xe0?'
p657
tp658
Rp659
ag11
(g15
S'\x00\x00\x00\x00\x00\x00\xe0?'
p660
tp661
Rp662
ag11
(g15
S'\x00\x00\x00\x00\x00\x00\xe0?'
p663
tp664
Rp665
ag11
(g15
S'\x00\x00\x00\x00\x00\x00\xe0?'
p666
tp667
Rp668
ag11
(g15
S'\x00\x00\x00\x00\x00\x00\xe0?'
p669
tp670
Rp671
ag11
(g15
S'\x00\x00\x00\x00\x00\x00\xe0?'
p672
tp673
Rp674
ag11
(g15
S'\x00\x00\x00\x00\x00\x00\xe0?'
p675
tp676
Rp677
asg93
(lp678
F0.6607142857142857
aF0.6607142857142857
aF0.6607142857142857
aF0.6607142857142857
aF0.6607142857142857
aF0.6607142857142857
aF0.6607142857142857
aF0.6607142857142857
aF0.6607142857142857
aF0.6607142857142857
aF0.6607142857142857
aF0.6607142857142857
aF0.6607142857142857
aF0.6607142857142857
aF0.6607142857142857
aF0.6607142857142857
aF0.6607142857142857
aF0.6607142857142857
aF0.6607142857142857
aF0.6607142857142857
aF0.6607142857142857
aF0.6607142857142857
aF0.6607142857142857
aF0.6607142857142857
aF0.6607142857142857
asg95
(lp679
F1.0
aF1.0
aF1.0
aF1.0
aF1.0
aF1.0
aF1.0
aF1.0
aF1.0
aF1.0
aF1.0
aF1.0
aF1.0
aF1.0
aF1.0
aF1.0
aF1.0
aF1.0
aF1.0
aF1.0
aF1.0
aF1.0
aF1.0
aF1.0
aF1.0
asg97
(lp680
F1.0
aF1.0
aF1.0
aF1.0
aF1.0
aF1.0
aF1.0
aF1.0
aF1.0
aF1.0
aF1.0
aF1.0
aF1.0
aF1.0
aF1.0
aF1.0
aF1.0
aF1.0
aF1.0
aF1.0
aF1.0
aF1.0
aF1.0
aF1.0
aF1.0
assg99
(dp681
g5
(lp682
F0.49333333333333335
aF0.49333333333333335
aF0.49333333333333335
aF0.49333333333333335
aF0.49333333333333335
aF0.49333333333333335
aF0.49333333333333335
aF0.49333333333333335
aF0.49333333333333335
aF0.49333333333333335
aF0.49333333333333335
aF0.49333333333333335
aF0.49333333333333335
aF0.49333333333333335
aF0.49333333333333335
aF0.49333333333333335
aF0.49333333333333335
aF0.49333333333333335
aF0.49333333333333335
aF0.49333333333333335
aF0.49333333333333335
aF0.49333333333333335
aF0.49333333333333335
aF0.49333333333333335
aF0.49333333333333335
asg7
(lp683
F0.49333333333333335
aF0.49333333333333335
aF0.49333333333333335
aF0.49333333333333335
aF0.49333333333333335
aF0.49333333333333335
aF0.49333333333333335
aF0.49333333333333335
aF0.49333333333333335
aF0.49333333333333335
aF0.49333333333333335
aF0.49333333333333335
aF0.49333333333333335
aF0.49333333333333335
aF0.49333333333333335
aF0.49333333333333335
aF0.49333333333333335
aF0.49333333333333335
aF0.49333333333333335
aF0.49333333333333335
aF0.49333333333333335
aF0.49333333333333335
aF0.49333333333333335
aF0.49333333333333335
aF0.49333333333333335
asg9
(lp684
g11
(g15
S'\x00\x00\x00\x00\x00\x00\xe0?'
p685
tp686
Rp687
ag11
(g15
S'\x00\x00\x00\x00\x00\x00\xe0?'
p688
tp689
Rp690
ag11
(g15
S'\x00\x00\x00\x00\x00\x00\xe0?'
p691
tp692
Rp693
ag11
(g15
S'\x00\x00\x00\x00\x00\x00\xe0?'
p694
tp695
Rp696
ag11
(g15
S'\x00\x00\x00\x00\x00\x00\xe0?'
p697
tp698
Rp699
ag11
(g15
S'\x00\x00\x00\x00\x00\x00\xe0?'
p700
tp701
Rp702
ag11
(g15
S'\x00\x00\x00\x00\x00\x00\xe0?'
p703
tp704
Rp705
ag11
(g15
S'\x00\x00\x00\x00\x00\x00\xe0?'
p706
tp707
Rp708
ag11
(g15
S'\x00\x00\x00\x00\x00\x00\xe0?'
p709
tp710
Rp711
ag11
(g15
S'\x00\x00\x00\x00\x00\x00\xe0?'
p712
tp713
Rp714
ag11
(g15
S'\x00\x00\x00\x00\x00\x00\xe0?'
p715
tp716
Rp717
ag11
(g15
S'\x00\x00\x00\x00\x00\x00\xe0?'
p718
tp719
Rp720
ag11
(g15
S'\x00\x00\x00\x00\x00\x00\xe0?'
p721
tp722
Rp723
ag11
(g15
S'\x00\x00\x00\x00\x00\x00\xe0?'
p724
tp725
Rp726
ag11
(g15
S'\x00\x00\x00\x00\x00\x00\xe0?'
p727
tp728
Rp729
ag11
(g15
S'\x00\x00\x00\x00\x00\x00\xe0?'
p730
tp731
Rp732
ag11
(g15
S'\x00\x00\x00\x00\x00\x00\xe0?'
p733
tp734
Rp735
ag11
(g15
S'\x00\x00\x00\x00\x00\x00\xe0?'
p736
tp737
Rp738
ag11
(g15
S'\x00\x00\x00\x00\x00\x00\xe0?'
p739
tp740
Rp741
ag11
(g15
S'\x00\x00\x00\x00\x00\x00\xe0?'
p742
tp743
Rp744
ag11
(g15
S'\x00\x00\x00\x00\x00\x00\xe0?'
p745
tp746
Rp747
ag11
(g15
S'\x00\x00\x00\x00\x00\x00\xe0?'
p748
tp749
Rp750
ag11
(g15
S'\x00\x00\x00\x00\x00\x00\xe0?'
p751
tp752
Rp753
ag11
(g15
S'\x00\x00\x00\x00\x00\x00\xe0?'
p754
tp755
Rp756
ag11
(g15
S'\x00\x00\x00\x00\x00\x00\xe0?'
p757
tp758
Rp759
asg93
(lp760
F0.6607142857142857
aF0.6607142857142857
aF0.6607142857142857
aF0.6607142857142857
aF0.6607142857142857
aF0.6607142857142857
aF0.6607142857142857
aF0.6607142857142857
aF0.6607142857142857
aF0.6607142857142857
aF0.6607142857142857
aF0.6607142857142857
aF0.6607142857142857
aF0.6607142857142857
aF0.6607142857142857
aF0.6607142857142857
aF0.6607142857142857
aF0.6607142857142857
aF0.6607142857142857
aF0.6607142857142857
aF0.6607142857142857
aF0.6607142857142857
aF0.6607142857142857
aF0.6607142857142857
aF0.6607142857142857
asg95
(lp761
F1.0
aF1.0
aF1.0
aF1.0
aF1.0
aF1.0
aF1.0
aF1.0
aF1.0
aF1.0
aF1.0
aF1.0
aF1.0
aF1.0
aF1.0
aF1.0
aF1.0
aF1.0
aF1.0
aF1.0
aF1.0
aF1.0
aF1.0
aF1.0
aF1.0
asg97
(lp762
F1.0
aF1.0
aF1.0
aF1.0
aF1.0
aF1.0
aF1.0
aF1.0
aF1.0
aF1.0
aF1.0
aF1.0
aF1.0
aF1.0
aF1.0
aF1.0
aF1.0
aF1.0
aF1.0
aF1.0
aF1.0
aF1.0
aF1.0
aF1.0
aF1.0
assg182
(dp763
g5
(lp764
F0.49333333333333335
aF0.49333333333333335
aF0.49333333333333335
aF0.49333333333333335
aF0.49333333333333335
aF0.49333333333333335
aF0.49333333333333335
aF0.49333333333333335
aF0.49333333333333335
aF0.49333333333333335
aF0.49333333333333335
aF0.49333333333333335
aF0.49333333333333335
aF0.49333333333333335
aF0.49333333333333335
aF0.49333333333333335
aF0.49333333333333335
aF0.49333333333333335
aF0.49333333333333335
aF0.49333333333333335
aF0.49333333333333335
aF0.49333333333333335
aF0.49333333333333335
aF0.49333333333333335
aF0.49333333333333335
asg7
(lp765
F0.49333333333333335
aF0.49333333333333335
aF0.49333333333333335
aF0.49333333333333335
aF0.49333333333333335
aF0.49333333333333335
aF0.49333333333333335
aF0.49333333333333335
aF0.49333333333333335
aF0.49333333333333335
aF0.49333333333333335
aF0.49333333333333335
aF0.49333333333333335
aF0.49333333333333335
aF0.49333333333333335
aF0.49333333333333335
aF0.49333333333333335
aF0.49333333333333335
aF0.49333333333333335
aF0.49333333333333335
aF0.49333333333333335
aF0.49333333333333335
aF0.49333333333333335
aF0.49333333333333335
aF0.49333333333333335
asg9
(lp766
g11
(g15
S'\x00\x00\x00\x00\x00\x00\xe0?'
p767
tp768
Rp769
ag11
(g15
S'\x00\x00\x00\x00\x00\x00\xe0?'
p770
tp771
Rp772
ag11
(g15
S'\x00\x00\x00\x00\x00\x00\xe0?'
p773
tp774
Rp775
ag11
(g15
S'\x00\x00\x00\x00\x00\x00\xe0?'
p776
tp777
Rp778
ag11
(g15
S'\x00\x00\x00\x00\x00\x00\xe0?'
p779
tp780
Rp781
ag11
(g15
S'\x00\x00\x00\x00\x00\x00\xe0?'
p782
tp783
Rp784
ag11
(g15
S'\x00\x00\x00\x00\x00\x00\xe0?'
p785
tp786
Rp787
ag11
(g15
S'\x00\x00\x00\x00\x00\x00\xe0?'
p788
tp789
Rp790
ag11
(g15
S'\x00\x00\x00\x00\x00\x00\xe0?'
p791
tp792
Rp793
ag11
(g15
S'\x00\x00\x00\x00\x00\x00\xe0?'
p794
tp795
Rp796
ag11
(g15
S'\x00\x00\x00\x00\x00\x00\xe0?'
p797
tp798
Rp799
ag11
(g15
S'\x00\x00\x00\x00\x00\x00\xe0?'
p800
tp801
Rp802
ag11
(g15
S'\x00\x00\x00\x00\x00\x00\xe0?'
p803
tp804
Rp805
ag11
(g15
S'\x00\x00\x00\x00\x00\x00\xe0?'
p806
tp807
Rp808
ag11
(g15
S'\x00\x00\x00\x00\x00\x00\xe0?'
p809
tp810
Rp811
ag11
(g15
S'\x00\x00\x00\x00\x00\x00\xe0?'
p812
tp813
Rp814
ag11
(g15
S'\x00\x00\x00\x00\x00\x00\xe0?'
p815
tp816
Rp817
ag11
(g15
S'\x00\x00\x00\x00\x00\x00\xe0?'
p818
tp819
Rp820
ag11
(g15
S'\x00\x00\x00\x00\x00\x00\xe0?'
p821
tp822
Rp823
ag11
(g15
S'\x00\x00\x00\x00\x00\x00\xe0?'
p824
tp825
Rp826
ag11
(g15
S'\x00\x00\x00\x00\x00\x00\xe0?'
p827
tp828
Rp829
ag11
(g15
S'\x00\x00\x00\x00\x00\x00\xe0?'
p830
tp831
Rp832
ag11
(g15
S'\x00\x00\x00\x00\x00\x00\xe0?'
p833
tp834
Rp835
ag11
(g15
S'\x00\x00\x00\x00\x00\x00\xe0?'
p836
tp837
Rp838
ag11
(g15
S'\x00\x00\x00\x00\x00\x00\xe0?'
p839
tp840
Rp841
asg93
(lp842
F0.6607142857142857
aF0.6607142857142857
aF0.6607142857142857
aF0.6607142857142857
aF0.6607142857142857
aF0.6607142857142857
aF0.6607142857142857
aF0.6607142857142857
aF0.6607142857142857
aF0.6607142857142857
aF0.6607142857142857
aF0.6607142857142857
aF0.6607142857142857
aF0.6607142857142857
aF0.6607142857142857
aF0.6607142857142857
aF0.6607142857142857
aF0.6607142857142857
aF0.6607142857142857
aF0.6607142857142857
aF0.6607142857142857
aF0.6607142857142857
aF0.6607142857142857
aF0.6607142857142857
aF0.6607142857142857
asg95
(lp843
F1.0
aF1.0
aF1.0
aF1.0
aF1.0
aF1.0
aF1.0
aF1.0
aF1.0
aF1.0
aF1.0
aF1.0
aF1.0
aF1.0
aF1.0
aF1.0
aF1.0
aF1.0
aF1.0
aF1.0
aF1.0
aF1.0
aF1.0
aF1.0
aF1.0
asg97
(lp844
F1.0
aF1.0
aF1.0
aF1.0
aF1.0
aF1.0
aF1.0
aF1.0
aF1.0
aF1.0
aF1.0
aF1.0
aF1.0
aF1.0
aF1.0
aF1.0
aF1.0
aF1.0
aF1.0
aF1.0
aF1.0
aF1.0
aF1.0
aF1.0
aF1.0
assg265
(dp845
g5
(lp846
F0.49333333333333335
aF0.49333333333333335
aF0.49333333333333335
aF0.49333333333333335
aF0.49333333333333335
aF0.49333333333333335
aF0.49333333333333335
aF0.49333333333333335
aF0.49333333333333335
aF0.49333333333333335
aF0.49333333333333335
aF0.49333333333333335
aF0.49333333333333335
aF0.49333333333333335
aF0.49333333333333335
aF0.49333333333333335
aF0.49333333333333335
aF0.49333333333333335
aF0.49333333333333335
aF0.49333333333333335
aF0.49333333333333335
aF0.49333333333333335
aF0.49333333333333335
aF0.49333333333333335
aF0.49333333333333335
asg7
(lp847
F0.49333333333333335
aF0.49333333333333335
aF0.49333333333333335
aF0.49333333333333335
aF0.49333333333333335
aF0.49333333333333335
aF0.49333333333333335
aF0.49333333333333335
aF0.49333333333333335
aF0.49333333333333335
aF0.49333333333333335
aF0.49333333333333335
aF0.49333333333333335
aF0.49333333333333335
aF0.49333333333333335
aF0.49333333333333335
aF0.49333333333333335
aF0.49333333333333335
aF0.49333333333333335
aF0.49333333333333335
aF0.49333333333333335
aF0.49333333333333335
aF0.49333333333333335
aF0.49333333333333335
aF0.49333333333333335
asg9
(lp848
g11
(g15
S'\x00\x00\x00\x00\x00\x00\xe0?'
p849
tp850
Rp851
ag11
(g15
S'\x00\x00\x00\x00\x00\x00\xe0?'
p852
tp853
Rp854
ag11
(g15
S'\x00\x00\x00\x00\x00\x00\xe0?'
p855
tp856
Rp857
ag11
(g15
S'\x00\x00\x00\x00\x00\x00\xe0?'
p858
tp859
Rp860
ag11
(g15
S'\x00\x00\x00\x00\x00\x00\xe0?'
p861
tp862
Rp863
ag11
(g15
S'\x00\x00\x00\x00\x00\x00\xe0?'
p864
tp865
Rp866
ag11
(g15
S'\x00\x00\x00\x00\x00\x00\xe0?'
p867
tp868
Rp869
ag11
(g15
S'\x00\x00\x00\x00\x00\x00\xe0?'
p870
tp871
Rp872
ag11
(g15
S'\x00\x00\x00\x00\x00\x00\xe0?'
p873
tp874
Rp875
ag11
(g15
S'\x00\x00\x00\x00\x00\x00\xe0?'
p876
tp877
Rp878
ag11
(g15
S'\x00\x00\x00\x00\x00\x00\xe0?'
p879
tp880
Rp881
ag11
(g15
S'\x00\x00\x00\x00\x00\x00\xe0?'
p882
tp883
Rp884
ag11
(g15
S'\x00\x00\x00\x00\x00\x00\xe0?'
p885
tp886
Rp887
ag11
(g15
S'\x00\x00\x00\x00\x00\x00\xe0?'
p888
tp889
Rp890
ag11
(g15
S'\x00\x00\x00\x00\x00\x00\xe0?'
p891
tp892
Rp893
ag11
(g15
S'\x00\x00\x00\x00\x00\x00\xe0?'
p894
tp895
Rp896
ag11
(g15
S'\x00\x00\x00\x00\x00\x00\xe0?'
p897
tp898
Rp899
ag11
(g15
S'\x00\x00\x00\x00\x00\x00\xe0?'
p900
tp901
Rp902
ag11
(g15
S'\x00\x00\x00\x00\x00\x00\xe0?'
p903
tp904
Rp905
ag11
(g15
S'\x00\x00\x00\x00\x00\x00\xe0?'
p906
tp907
Rp908
ag11
(g15
S'\x00\x00\x00\x00\x00\x00\xe0?'
p909
tp910
Rp911
ag11
(g15
S'\x00\x00\x00\x00\x00\x00\xe0?'
p912
tp913
Rp914
ag11
(g15
S'\x00\x00\x00\x00\x00\x00\xe0?'
p915
tp916
Rp917
ag11
(g15
S'\x00\x00\x00\x00\x00\x00\xe0?'
p918
tp919
Rp920
ag11
(g15
S'\x00\x00\x00\x00\x00\x00\xe0?'
p921
tp922
Rp923
asg93
(lp924
F0.6607142857142857
aF0.6607142857142857
aF0.6607142857142857
aF0.6607142857142857
aF0.6607142857142857
aF0.6607142857142857
aF0.6607142857142857
aF0.6607142857142857
aF0.6607142857142857
aF0.6607142857142857
aF0.6607142857142857
aF0.6607142857142857
aF0.6607142857142857
aF0.6607142857142857
aF0.6607142857142857
aF0.6607142857142857
aF0.6607142857142857
aF0.6607142857142857
aF0.6607142857142857
aF0.6607142857142857
aF0.6607142857142857
aF0.6607142857142857
aF0.6607142857142857
aF0.6607142857142857
aF0.6607142857142857
asg95
(lp925
F1.0
aF1.0
aF1.0
aF1.0
aF1.0
aF1.0
aF1.0
aF1.0
aF1.0
aF1.0
aF1.0
aF1.0
aF1.0
aF1.0
aF1.0
aF1.0
aF1.0
aF1.0
aF1.0
aF1.0
aF1.0
aF1.0
aF1.0
aF1.0
aF1.0
asg97
(lp926
F1.0
aF1.0
aF1.0
aF1.0
aF1.0
aF1.0
aF1.0
aF1.0
aF1.0
aF1.0
aF1.0
aF1.0
aF1.0
aF1.0
aF1.0
aF1.0
aF1.0
aF1.0
aF1.0
aF1.0
aF1.0
aF1.0
aF1.0
aF1.0
aF1.0
assg348
(dp927
g5
(lp928
F0.72
aF0.6
aF0.6
aF0.6
aF0.6
aF0.6
aF0.72
aF0.6
aF0.6
aF0.6
aF0.6
aF0.6
aF0.6
aF0.6
aF0.6
aF0.6
aF0.6
aF0.6
aF0.6
aF0.6
aF0.6
aF0.6
aF0.6
aF0.6
aF0.6
asg7
(lp929
F1.0
aF1.0
aF1.0
aF1.0
aF1.0
aF1.0
aF1.0
aF1.0
aF1.0
aF1.0
aF1.0
aF1.0
aF1.0
aF1.0
aF1.0
aF1.0
aF1.0
aF1.0
aF1.0
aF1.0
aF1.0
aF1.0
aF1.0
aF1.0
aF1.0
asg9
(lp930
g11
(g15
S'\xb4n0E>\xeb\xe6?'
p931
tp932
Rp933
ag11
(g15
S'o0E>\xeb\x06\xe3?'
p934
tp935
Rp936
ag11
(g15
S'o0E>\xeb\x06\xe3?'
p937
tp938
Rp939
ag11
(g15
S'o0E>\xeb\x06\xe3?'
p940
tp941
Rp942
ag11
(g15
S'o0E>\xeb\x06\xe3?'
p943
tp944
Rp945
ag11
(g15
S'o0E>\xeb\x06\xe3?'
p946
tp947
Rp948
ag11
(g15
S'\xb4n0E>\xeb\xe6?'
p949
tp950
Rp951
ag11
(g15
S'o0E>\xeb\x06\xe3?'
p952
tp953
Rp954
ag11
(g15
S'o0E>\xeb\x06\xe3?'
p955
tp956
Rp957
ag11
(g15
S'o0E>\xeb\x06\xe3?'
p958
tp959
Rp960
ag11
(g15
S'o0E>\xeb\x06\xe3?'
p961
tp962
Rp963
ag11
(g15
S'o0E>\xeb\x06\xe3?'
p964
tp965
Rp966
ag11
(g15
S'o0E>\xeb\x06\xe3?'
p967
tp968
Rp969
ag11
(g15
S'o0E>\xeb\x06\xe3?'
p970
tp971
Rp972
ag11
(g15
S'o0E>\xeb\x06\xe3?'
p973
tp974
Rp975
ag11
(g15
S'o0E>\xeb\x06\xe3?'
p976
tp977
Rp978
ag11
(g15
S'o0E>\xeb\x06\xe3?'
p979
tp980
Rp981
ag11
(g15
S'o0E>\xeb\x06\xe3?'
p982
tp983
Rp984
ag11
(g15
S'o0E>\xeb\x06\xe3?'
p985
tp986
Rp987
ag11
(g15
S'o0E>\xeb\x06\xe3?'
p988
tp989
Rp990
ag11
(g15
S'o0E>\xeb\x06\xe3?'
p991
tp992
Rp993
ag11
(g15
S'o0E>\xeb\x06\xe3?'
p994
tp995
Rp996
ag11
(g15
S'o0E>\xeb\x06\xe3?'
p997
tp998
Rp999
ag11
(g15
S'o0E>\xeb\x06\xe3?'
p1000
tp1001
Rp1002
ag11
(g15
S'o0E>\xeb\x06\xe3?'
p1003
tp1004
Rp1005
asg93
(lp1006
F0.6037735849056604
aF0.3181818181818182
aF0.3181818181818182
aF0.3181818181818182
aF0.3181818181818182
aF0.3181818181818182
aF0.6037735849056604
aF0.3181818181818182
aF0.3181818181818182
aF0.3181818181818182
aF0.3181818181818182
aF0.3181818181818182
aF0.3181818181818182
aF0.3181818181818182
aF0.3181818181818182
aF0.3181818181818182
aF0.3181818181818182
aF0.3181818181818182
aF0.3181818181818182
aF0.3181818181818182
aF0.3181818181818182
aF0.3181818181818182
aF0.3181818181818182
aF0.3181818181818182
aF0.3181818181818182
asg95
(lp1007
F0.0
aF0.0
aF0.0
aF0.0
aF0.0
aF0.0
aF0.0
aF0.0
aF0.0
aF0.0
aF0.0
aF0.0
aF0.0
aF0.0
aF0.0
aF0.0
aF0.0
aF0.0
aF0.0
aF0.0
aF0.0
aF0.0
aF0.0
aF0.0
aF0.0
asg97
(lp1008
F0.43243243243243246
aF0.1891891891891892
aF0.1891891891891892
aF0.1891891891891892
aF0.1891891891891892
aF0.1891891891891892
aF0.43243243243243246
aF0.1891891891891892
aF0.1891891891891892
aF0.1891891891891892
aF0.1891891891891892
aF0.1891891891891892
aF0.1891891891891892
aF0.1891891891891892
aF0.1891891891891892
aF0.1891891891891892
aF0.1891891891891892
aF0.1891891891891892
aF0.1891891891891892
aF0.1891891891891892
aF0.1891891891891892
aF0.1891891891891892
aF0.1891891891891892
aF0.1891891891891892
aF0.1891891891891892
assg431
(dp1009
g5
(lp1010
F0.49333333333333335
aF0.49333333333333335
aF0.49333333333333335
aF0.49333333333333335
aF0.49333333333333335
aF0.49333333333333335
aF0.49333333333333335
aF0.49333333333333335
aF0.49333333333333335
aF0.49333333333333335
aF0.49333333333333335
aF0.49333333333333335
aF0.49333333333333335
aF0.49333333333333335
aF0.49333333333333335
aF0.48
aF0.49333333333333335
aF0.49333333333333335
aF0.49333333333333335
aF0.49333333333333335
aF0.49333333333333335
aF0.49333333333333335
aF0.49333333333333335
aF0.49333333333333335
aF0.49333333333333335
asg7
(lp1011
F0.49333333333333335
aF0.49333333333333335
aF0.49333333333333335
aF0.49333333333333335
aF0.49333333333333335
aF0.49333333333333335
aF0.49333333333333335
aF0.49333333333333335
aF0.49333333333333335
aF0.49333333333333335
aF0.49333333333333335
aF0.49333333333333335
aF0.49333333333333335
aF0.49333333333333335
aF0.49333333333333335
aF0.4864864864864865
aF0.49333333333333335
aF0.49333333333333335
aF0.49333333333333335
aF0.49333333333333335
aF0.49333333333333335
aF0.49333333333333335
aF0.49333333333333335
aF0.49333333333333335
aF0.49333333333333335
asg9
(lp1012
g11
(g15
S'\x00\x00\x00\x00\x00\x00\xe0?'
p1013
tp1014
Rp1015
ag11
(g15
S'\x00\x00\x00\x00\x00\x00\xe0?'
p1016
tp1017
Rp1018
ag11
(g15
S'\x00\x00\x00\x00\x00\x00\xe0?'
p1019
tp1020
Rp1021
ag11
(g15
S'\x00\x00\x00\x00\x00\x00\xe0?'
p1022
tp1023
Rp1024
ag11
(g15
S'\x00\x00\x00\x00\x00\x00\xe0?'
p1025
tp1026
Rp1027
ag11
(g15
S'\x00\x00\x00\x00\x00\x00\xe0?'
p1028
tp1029
Rp1030
ag11
(g15
S'\x00\x00\x00\x00\x00\x00\xe0?'
p1031
tp1032
Rp1033
ag11
(g15
S'\x00\x00\x00\x00\x00\x00\xe0?'
p1034
tp1035
Rp1036
ag11
(g15
S'\x00\x00\x00\x00\x00\x00\xe0?'
p1037
tp1038
Rp1039
ag11
(g15
S'\x00\x00\x00\x00\x00\x00\xe0?'
p1040
tp1041
Rp1042
ag11
(g15
S'\x00\x00\x00\x00\x00\x00\xe0?'
p1043
tp1044
Rp1045
ag11
(g15
S'\x00\x00\x00\x00\x00\x00\xe0?'
p1046
tp1047
Rp1048
ag11
(g15
S'\x00\x00\x00\x00\x00\x00\xe0?'
p1049
tp1050
Rp1051
ag11
(g15
S'\x00\x00\x00\x00\x00\x00\xe0?'
p1052
tp1053
Rp1054
ag11
(g15
S'\x00\x00\x00\x00\x00\x00\xe0?'
p1055
tp1056
Rp1057
ag11
(g15
S'*\xf2Y7\x98"\xdf?'
p1058
tp1059
Rp1060
ag11
(g15
S'\x00\x00\x00\x00\x00\x00\xe0?'
p1061
tp1062
Rp1063
ag11
(g15
S'\x00\x00\x00\x00\x00\x00\xe0?'
p1064
tp1065
Rp1066
ag11
(g15
S'\x00\x00\x00\x00\x00\x00\xe0?'
p1067
tp1068
Rp1069
ag11
(g15
S'\x00\x00\x00\x00\x00\x00\xe0?'
p1070
tp1071
Rp1072
ag11
(g15
S'\x00\x00\x00\x00\x00\x00\xe0?'
p1073
tp1074
Rp1075
ag11
(g15
S'\x00\x00\x00\x00\x00\x00\xe0?'
p1076
tp1077
Rp1078
ag11
(g15
S'\x00\x00\x00\x00\x00\x00\xe0?'
p1079
tp1080
Rp1081
ag11
(g15
S'\x00\x00\x00\x00\x00\x00\xe0?'
p1082
tp1083
Rp1084
ag11
(g15
S'\x00\x00\x00\x00\x00\x00\xe0?'
p1085
tp1086
Rp1087
asg93
(lp1088
F0.6607142857142857
aF0.6607142857142857
aF0.6607142857142857
aF0.6607142857142857
aF0.6607142857142857
aF0.6607142857142857
aF0.6607142857142857
aF0.6607142857142857
aF0.6607142857142857
aF0.6607142857142857
aF0.6607142857142857
aF0.6607142857142857
aF0.6607142857142857
aF0.6607142857142857
aF0.6607142857142857
aF0.6486486486486486
aF0.6607142857142857
aF0.6607142857142857
aF0.6607142857142857
aF0.6607142857142857
aF0.6607142857142857
aF0.6607142857142857
aF0.6607142857142857
aF0.6607142857142857
aF0.6607142857142857
asg95
(lp1089
F1.0
aF1.0
aF1.0
aF1.0
aF1.0
aF1.0
aF1.0
aF1.0
aF1.0
aF1.0
aF1.0
aF1.0
aF1.0
aF1.0
aF1.0
aF1.0
aF1.0
aF1.0
aF1.0
aF1.0
aF1.0
aF1.0
aF1.0
aF1.0
aF1.0
asg97
(lp1090
F1.0
aF1.0
aF1.0
aF1.0
aF1.0
aF1.0
aF1.0
aF1.0
aF1.0
aF1.0
aF1.0
aF1.0
aF1.0
aF1.0
aF1.0
aF0.972972972972973
aF1.0
aF1.0
aF1.0
aF1.0
aF1.0
aF1.0
aF1.0
aF1.0
aF1.0
assg514
(dp1091
g5
(lp1092
F0.49333333333333335
aF0.49333333333333335
aF0.49333333333333335
aF0.49333333333333335
aF0.49333333333333335
aF0.49333333333333335
aF0.49333333333333335
aF0.49333333333333335
aF0.49333333333333335
aF0.49333333333333335
aF0.49333333333333335
aF0.49333333333333335
aF0.49333333333333335
aF0.49333333333333335
aF0.49333333333333335
aF0.49333333333333335
aF0.49333333333333335
aF0.49333333333333335
aF0.49333333333333335
aF0.49333333333333335
aF0.49333333333333335
aF0.48
aF0.49333333333333335
aF0.49333333333333335
aF0.49333333333333335
asg7
(lp1093
F0.49333333333333335
aF0.49333333333333335
aF0.49333333333333335
aF0.49333333333333335
aF0.49333333333333335
aF0.49333333333333335
aF0.49333333333333335
aF0.49333333333333335
aF0.49333333333333335
aF0.49333333333333335
aF0.49333333333333335
aF0.49333333333333335
aF0.49333333333333335
aF0.49333333333333335
aF0.49333333333333335
aF0.49333333333333335
aF0.49333333333333335
aF0.49333333333333335
aF0.49333333333333335
aF0.49333333333333335
aF0.49333333333333335
aF0.4864864864864865
aF0.49333333333333335
aF0.49333333333333335
aF0.49333333333333335
asg9
(lp1094
g11
(g15
S'\x00\x00\x00\x00\x00\x00\xe0?'
p1095
tp1096
Rp1097
ag11
(g15
S'\x00\x00\x00\x00\x00\x00\xe0?'
p1098
tp1099
Rp1100
ag11
(g15
S'\x00\x00\x00\x00\x00\x00\xe0?'
p1101
tp1102
Rp1103
ag11
(g15
S'\x00\x00\x00\x00\x00\x00\xe0?'
p1104
tp1105
Rp1106
ag11
(g15
S'\x00\x00\x00\x00\x00\x00\xe0?'
p1107
tp1108
Rp1109
ag11
(g15
S'\x00\x00\x00\x00\x00\x00\xe0?'
p1110
tp1111
Rp1112
ag11
(g15
S'\x00\x00\x00\x00\x00\x00\xe0?'
p1113
tp1114
Rp1115
ag11
(g15
S'\x00\x00\x00\x00\x00\x00\xe0?'
p1116
tp1117
Rp1118
ag11
(g15
S'\x00\x00\x00\x00\x00\x00\xe0?'
p1119
tp1120
Rp1121
ag11
(g15
S'\x00\x00\x00\x00\x00\x00\xe0?'
p1122
tp1123
Rp1124
ag11
(g15
S'\x00\x00\x00\x00\x00\x00\xe0?'
p1125
tp1126
Rp1127
ag11
(g15
S'\x00\x00\x00\x00\x00\x00\xe0?'
p1128
tp1129
Rp1130
ag11
(g15
S'\x00\x00\x00\x00\x00\x00\xe0?'
p1131
tp1132
Rp1133
ag11
(g15
S'\x00\x00\x00\x00\x00\x00\xe0?'
p1134
tp1135
Rp1136
ag11
(g15
S'\x00\x00\x00\x00\x00\x00\xe0?'
p1137
tp1138
Rp1139
ag11
(g15
S'\x00\x00\x00\x00\x00\x00\xe0?'
p1140
tp1141
Rp1142
ag11
(g15
S'\x00\x00\x00\x00\x00\x00\xe0?'
p1143
tp1144
Rp1145
ag11
(g15
S'\x00\x00\x00\x00\x00\x00\xe0?'
p1146
tp1147
Rp1148
ag11
(g15
S'\x00\x00\x00\x00\x00\x00\xe0?'
p1149
tp1150
Rp1151
ag11
(g15
S'\x00\x00\x00\x00\x00\x00\xe0?'
p1152
tp1153
Rp1154
ag11
(g15
S'\x00\x00\x00\x00\x00\x00\xe0?'
p1155
tp1156
Rp1157
ag11
(g15
S'*\xf2Y7\x98"\xdf?'
p1158
tp1159
Rp1160
ag11
(g15
S'\x00\x00\x00\x00\x00\x00\xe0?'
p1161
tp1162
Rp1163
ag11
(g15
S'\x00\x00\x00\x00\x00\x00\xe0?'
p1164
tp1165
Rp1166
ag11
(g15
S'\x00\x00\x00\x00\x00\x00\xe0?'
p1167
tp1168
Rp1169
asg93
(lp1170
F0.6607142857142857
aF0.6607142857142857
aF0.6607142857142857
aF0.6607142857142857
aF0.6607142857142857
aF0.6607142857142857
aF0.6607142857142857
aF0.6607142857142857
aF0.6607142857142857
aF0.6607142857142857
aF0.6607142857142857
aF0.6607142857142857
aF0.6607142857142857
aF0.6607142857142857
aF0.6607142857142857
aF0.6607142857142857
aF0.6607142857142857
aF0.6607142857142857
aF0.6607142857142857
aF0.6607142857142857
aF0.6607142857142857
aF0.6486486486486486
aF0.6607142857142857
aF0.6607142857142857
aF0.6607142857142857
asg95
(lp1171
F1.0
aF1.0
aF1.0
aF1.0
aF1.0
aF1.0
aF1.0
aF1.0
aF1.0
aF1.0
aF1.0
aF1.0
aF1.0
aF1.0
aF1.0
aF1.0
aF1.0
aF1.0
aF1.0
aF1.0
aF1.0
aF1.0
aF1.0
aF1.0
aF1.0
asg97
(lp1172
F1.0
aF1.0
aF1.0
aF1.0
aF1.0
aF1.0
aF1.0
aF1.0
aF1.0
aF1.0
aF1.0
aF1.0
aF1.0
aF1.0
aF1.0
aF1.0
aF1.0
aF1.0
aF1.0
aF1.0
aF1.0
aF0.972972972972973
aF1.0
aF1.0
aF1.0
asssS'PayPal'
p1173
(dp1174
g3
(dp1175
g5
(lp1176
F0.9969834087481146
aF0.9969834087481146
aF0.9969834087481146
aF0.9969834087481146
aF0.9969834087481146
aF0.9969834087481146
aF0.9969834087481146
aF0.9969834087481146
aF0.9909502262443439
aF0.9909502262443439
aF0.9969834087481146
aF0.9969834087481146
aF0.889894419306184
aF0.9909502262443439
aF0.9969834087481146
aF0.889894419306184
aF0.9909502262443439
aF0.9969834087481146
aF0.9969834087481146
aF0.9969834087481146
aF0.9969834087481146
aF0.9969834087481146
aF0.9969834087481146
aF0.9969834087481146
aF0.9909502262443439
asg7
(lp1177
F0.995260663507109
aF0.995260663507109
aF0.995260663507109
aF0.995260663507109
aF0.995260663507109
aF0.995260663507109
aF0.995260663507109
aF0.995260663507109
aF0.9952153110047847
aF0.9952153110047847
aF0.995260663507109
aF0.995260663507109
aF0.8519269776876268
aF0.9952153110047847
aF0.995260663507109
aF0.8519269776876268
aF0.9952153110047847
aF0.995260663507109
aF0.995260663507109
aF0.995260663507109
aF0.995260663507109
aF0.995260663507109
aF0.995260663507109
aF0.995260663507109
aF0.9952153110047847
asg9
(lp1178
g11
(g15
S's\xe1\xae\xbeI\xde\xef?'
p1179
tp1180
Rp1181
ag11
(g15
S's\xe1\xae\xbeI\xde\xef?'
p1182
tp1183
Rp1184
ag11
(g15
S's\xe1\xae\xbeI\xde\xef?'
p1185
tp1186
Rp1187
ag11
(g15
S's\xe1\xae\xbeI\xde\xef?'
p1188
tp1189
Rp1190
ag11
(g15
S's\xe1\xae\xbeI\xde\xef?'
p1191
tp1192
Rp1193
ag11
(g15
S's\xe1\xae\xbeI\xde\xef?'
p1194
tp1195
Rp1196
ag11
(g15
S's\xe1\xae\xbeI\xde\xef?'
p1197
tp1198
Rp1199
ag11
(g15
S's\xe1\xae\xbeI\xde\xef?'
p1200
tp1201
Rp1202
ag11
(g15
S'\x03\xdf\x87NG\xb7\xef?'
p1203
tp1204
Rp1205
ag11
(g15
S'\x03\xdf\x87NG\xb7\xef?'
p1206
tp1207
Rp1208
ag11
(g15
S's\xe1\xae\xbeI\xde\xef?'
p1209
tp1210
Rp1211
ag11
(g15
S's\xe1\xae\xbeI\xde\xef?'
p1212
tp1213
Rp1214
ag11
(g15
S'\xdf$\xef\xaf\x831\xeb?'
p1215
tp1216
Rp1217
ag11
(g15
S'\x03\xdf\x87NG\xb7\xef?'
p1218
tp1219
Rp1220
ag11
(g15
S's\xe1\xae\xbeI\xde\xef?'
p1221
tp1222
Rp1223
ag11
(g15
S'\xdf$\xef\xaf\x831\xeb?'
p1224
tp1225
Rp1226
ag11
(g15
S'\x03\xdf\x87NG\xb7\xef?'
p1227
tp1228
Rp1229
ag11
(g15
S's\xe1\xae\xbeI\xde\xef?'
p1230
tp1231
Rp1232
ag11
(g15
S's\xe1\xae\xbeI\xde\xef?'
p1233
tp1234
Rp1235
ag11
(g15
S's\xe1\xae\xbeI\xde\xef?'
p1236
tp1237
Rp1238
ag11
(g15
S's\xe1\xae\xbeI\xde\xef?'
p1239
tp1240
Rp1241
ag11
(g15
S's\xe1\xae\xbeI\xde\xef?'
p1242
tp1243
Rp1244
ag11
(g15
S's\xe1\xae\xbeI\xde\xef?'
p1245
tp1246
Rp1247
ag11
(g15
S's\xe1\xae\xbeI\xde\xef?'
p1248
tp1249
Rp1250
ag11
(g15
S'\x03\xdf\x87NG\xb7\xef?'
p1251
tp1252
Rp1253
asg93
(lp1254
F0.997624703087886
aF0.997624703087886
aF0.997624703087886
aF0.997624703087886
aF0.997624703087886
aF0.997624703087886
aF0.997624703087886
aF0.997624703087886
aF0.9928400954653939
aF0.9928400954653939
aF0.997624703087886
aF0.997624703087886
aF0.9200438116100766
aF0.9928400954653939
aF0.997624703087886
aF0.9200438116100766
aF0.9928400954653939
aF0.997624703087886
aF0.997624703087886
aF0.997624703087886
aF0.997624703087886
aF0.997624703087886
aF0.997624703087886
aF0.997624703087886
aF0.9928400954653939
asg95
(lp1255
F0.00823045267489712
aF0.00823045267489712
aF0.00823045267489712
aF0.00823045267489712
aF0.00823045267489712
aF0.00823045267489712
aF0.00823045267489712
aF0.00823045267489712
aF0.00823045267489712
aF0.00823045267489712
aF0.00823045267489712
aF0.00823045267489712
aF0.3004115226337449
aF0.00823045267489712
aF0.00823045267489712
aF0.3004115226337449
aF0.00823045267489712
aF0.00823045267489712
aF0.00823045267489712
aF0.00823045267489712
aF0.00823045267489712
aF0.00823045267489712
aF0.00823045267489712
aF0.00823045267489712
aF0.00823045267489712
asg97
(lp1256
F1.0
aF1.0
aF1.0
aF1.0
aF1.0
aF1.0
aF1.0
aF1.0
aF0.9904761904761905
aF0.9904761904761905
aF1.0
aF1.0
aF1.0
aF0.9904761904761905
aF1.0
aF1.0
aF0.9904761904761905
aF1.0
aF1.0
aF1.0
aF1.0
aF1.0
aF1.0
aF1.0
aF0.9904761904761905
assg99
(dp1257
g5
(lp1258
F0.9969834087481146
aF0.9969834087481146
aF0.9969834087481146
aF0.9969834087481146
aF0.9969834087481146
aF0.9969834087481146
aF0.9969834087481146
aF0.9969834087481146
aF0.9969834087481146
aF0.9969834087481146
aF0.9969834087481146
aF0.9969834087481146
aF0.9969834087481146
aF0.9969834087481146
aF0.9969834087481146
aF0.9969834087481146
aF0.9969834087481146
aF0.9969834087481146
aF0.9969834087481146
aF0.9969834087481146
aF0.9969834087481146
aF0.9969834087481146
aF0.9969834087481146
aF0.9969834087481146
aF0.9969834087481146
asg7
(lp1259
F0.995260663507109
aF0.995260663507109
aF0.995260663507109
aF0.995260663507109
aF0.995260663507109
aF0.995260663507109
aF0.995260663507109
aF0.995260663507109
aF0.995260663507109
aF0.995260663507109
aF0.995260663507109
aF0.995260663507109
aF0.995260663507109
aF0.995260663507109
aF0.995260663507109
aF0.995260663507109
aF0.995260663507109
aF0.995260663507109
aF0.995260663507109
aF0.995260663507109
aF0.995260663507109
aF0.995260663507109
aF0.995260663507109
aF0.995260663507109
aF0.995260663507109
asg9
(lp1260
g11
(g15
S's\xe1\xae\xbeI\xde\xef?'
p1261
tp1262
Rp1263
ag11
(g15
S's\xe1\xae\xbeI\xde\xef?'
p1264
tp1265
Rp1266
ag11
(g15
S's\xe1\xae\xbeI\xde\xef?'
p1267
tp1268
Rp1269
ag11
(g15
S's\xe1\xae\xbeI\xde\xef?'
p1270
tp1271
Rp1272
ag11
(g15
S's\xe1\xae\xbeI\xde\xef?'
p1273
tp1274
Rp1275
ag11
(g15
S's\xe1\xae\xbeI\xde\xef?'
p1276
tp1277
Rp1278
ag11
(g15
S's\xe1\xae\xbeI\xde\xef?'
p1279
tp1280
Rp1281
ag11
(g15
S's\xe1\xae\xbeI\xde\xef?'
p1282
tp1283
Rp1284
ag11
(g15
S's\xe1\xae\xbeI\xde\xef?'
p1285
tp1286
Rp1287
ag11
(g15
S's\xe1\xae\xbeI\xde\xef?'
p1288
tp1289
Rp1290
ag11
(g15
S's\xe1\xae\xbeI\xde\xef?'
p1291
tp1292
Rp1293
ag11
(g15
S's\xe1\xae\xbeI\xde\xef?'
p1294
tp1295
Rp1296
ag11
(g15
S's\xe1\xae\xbeI\xde\xef?'
p1297
tp1298
Rp1299
ag11
(g15
S's\xe1\xae\xbeI\xde\xef?'
p1300
tp1301
Rp1302
ag11
(g15
S's\xe1\xae\xbeI\xde\xef?'
p1303
tp1304
Rp1305
ag11
(g15
S's\xe1\xae\xbeI\xde\xef?'
p1306
tp1307
Rp1308
ag11
(g15
S's\xe1\xae\xbeI\xde\xef?'
p1309
tp1310
Rp1311
ag11
(g15
S's\xe1\xae\xbeI\xde\xef?'
p1312
tp1313
Rp1314
ag11
(g15
S's\xe1\xae\xbeI\xde\xef?'
p1315
tp1316
Rp1317
ag11
(g15
S's\xe1\xae\xbeI\xde\xef?'
p1318
tp1319
Rp1320
ag11
(g15
S's\xe1\xae\xbeI\xde\xef?'
p1321
tp1322
Rp1323
ag11
(g15
S's\xe1\xae\xbeI\xde\xef?'
p1324
tp1325
Rp1326
ag11
(g15
S's\xe1\xae\xbeI\xde\xef?'
p1327
tp1328
Rp1329
ag11
(g15
S's\xe1\xae\xbeI\xde\xef?'
p1330
tp1331
Rp1332
ag11
(g15
S's\xe1\xae\xbeI\xde\xef?'
p1333
tp1334
Rp1335
asg93
(lp1336
F0.997624703087886
aF0.997624703087886
aF0.997624703087886
aF0.997624703087886
aF0.997624703087886
aF0.997624703087886
aF0.997624703087886
aF0.997624703087886
aF0.997624703087886
aF0.997624703087886
aF0.997624703087886
aF0.997624703087886
aF0.997624703087886
aF0.997624703087886
aF0.997624703087886
aF0.997624703087886
aF0.997624703087886
aF0.997624703087886
aF0.997624703087886
aF0.997624703087886
aF0.997624703087886
aF0.997624703087886
aF0.997624703087886
aF0.997624703087886
aF0.997624703087886
asg95
(lp1337
F0.00823045267489712
aF0.00823045267489712
aF0.00823045267489712
aF0.00823045267489712
aF0.00823045267489712
aF0.00823045267489712
aF0.00823045267489712
aF0.00823045267489712
aF0.00823045267489712
aF0.00823045267489712
aF0.00823045267489712
aF0.00823045267489712
aF0.00823045267489712
aF0.00823045267489712
aF0.00823045267489712
aF0.00823045267489712
aF0.00823045267489712
aF0.00823045267489712
aF0.00823045267489712
aF0.00823045267489712
aF0.00823045267489712
aF0.00823045267489712
aF0.00823045267489712
aF0.00823045267489712
aF0.00823045267489712
asg97
(lp1338
F1.0
aF1.0
aF1.0
aF1.0
aF1.0
aF1.0
aF1.0
aF1.0
aF1.0
aF1.0
aF1.0
aF1.0
aF1.0
aF1.0
aF1.0
aF1.0
aF1.0
aF1.0
aF1.0
aF1.0
aF1.0
aF1.0
aF1.0
aF1.0
aF1.0
assg182
(dp1339
g5
(lp1340
F0.9969834087481146
aF0.9969834087481146
aF0.9924585218702866
aF0.9969834087481146
aF0.9969834087481146
aF0.9924585218702866
aF0.9969834087481146
aF0.9969834087481146
aF0.9969834087481146
aF0.9969834087481146
aF0.9969834087481146
aF0.9924585218702866
aF0.9969834087481146
aF0.9924585218702866
aF0.9969834087481146
aF0.9969834087481146
aF0.9969834087481146
aF0.9969834087481146
aF0.9924585218702866
aF0.9969834087481146
aF0.9969834087481146
aF0.9969834087481146
aF0.9969834087481146
aF0.9924585218702866
aF0.9969834087481146
asg7
(lp1341
F0.995260663507109
aF0.995260663507109
aF0.9882352941176471
aF0.995260663507109
aF0.995260663507109
aF0.9882352941176471
aF0.995260663507109
aF0.995260663507109
aF0.995260663507109
aF0.995260663507109
aF0.995260663507109
aF0.9882352941176471
aF0.995260663507109
aF0.9882352941176471
aF0.995260663507109
aF0.995260663507109
aF0.995260663507109
aF0.995260663507109
aF0.9882352941176471
aF0.995260663507109
aF0.995260663507109
aF0.995260663507109
aF0.995260663507109
aF0.9882352941176471
aF0.995260663507109
asg9
(lp1342
g11
(g15
S's\xe1\xae\xbeI\xde\xef?'
p1343
tp1344
Rp1345
ag11
(g15
S's\xe1\xae\xbeI\xde\xef?'
p1346
tp1347
Rp1348
ag11
(g15
S'\x9f3\xb5\\\xb8\xab\xef?'
p1349
tp1350
Rp1351
ag11
(g15
S's\xe1\xae\xbeI\xde\xef?'
p1352
tp1353
Rp1354
ag11
(g15
S's\xe1\xae\xbeI\xde\xef?'
p1355
tp1356
Rp1357
ag11
(g15
S'\x9f3\xb5\\\xb8\xab\xef?'
p1358
tp1359
Rp1360
ag11
(g15
S's\xe1\xae\xbeI\xde\xef?'
p1361
tp1362
Rp1363
ag11
(g15
S's\xe1\xae\xbeI\xde\xef?'
p1364
tp1365
Rp1366
ag11
(g15
S's\xe1\xae\xbeI\xde\xef?'
p1367
tp1368
Rp1369
ag11
(g15
S's\xe1\xae\xbeI\xde\xef?'
p1370
tp1371
Rp1372
ag11
(g15
S's\xe1\xae\xbeI\xde\xef?'
p1373
tp1374
Rp1375
ag11
(g15
S'\x9f3\xb5\\\xb8\xab\xef?'
p1376
tp1377
Rp1378
ag11
(g15
S's\xe1\xae\xbeI\xde\xef?'
p1379
tp1380
Rp1381
ag11
(g15
S'\x9f3\xb5\\\xb8\xab\xef?'
p1382
tp1383
Rp1384
ag11
(g15
S's\xe1\xae\xbeI\xde\xef?'
p1385
tp1386
Rp1387
ag11
(g15
S's\xe1\xae\xbeI\xde\xef?'
p1388
tp1389
Rp1390
ag11
(g15
S's\xe1\xae\xbeI\xde\xef?'
p1391
tp1392
Rp1393
ag11
(g15
S's\xe1\xae\xbeI\xde\xef?'
p1394
tp1395
Rp1396
ag11
(g15
S'\x9f3\xb5\\\xb8\xab\xef?'
p1397
tp1398
Rp1399
ag11
(g15
S's\xe1\xae\xbeI\xde\xef?'
p1400
tp1401
Rp1402
ag11
(g15
S's\xe1\xae\xbeI\xde\xef?'
p1403
tp1404
Rp1405
ag11
(g15
S's\xe1\xae\xbeI\xde\xef?'
p1406
tp1407
Rp1408
ag11
(g15
S's\xe1\xae\xbeI\xde\xef?'
p1409
tp1410
Rp1411
ag11
(g15
S'\x9f3\xb5\\\xb8\xab\xef?'
p1412
tp1413
Rp1414
ag11
(g15
S's\xe1\xae\xbeI\xde\xef?'
p1415
tp1416
Rp1417
asg93
(lp1418
F0.997624703087886
aF0.997624703087886
aF0.9940828402366864
aF0.997624703087886
aF0.997624703087886
aF0.9940828402366864
aF0.997624703087886
aF0.997624703087886
aF0.997624703087886
aF0.997624703087886
aF0.997624703087886
aF0.9940828402366864
aF0.997624703087886
aF0.9940828402366864
aF0.997624703087886
aF0.997624703087886
aF0.997624703087886
aF0.997624703087886
aF0.9940828402366864
aF0.997624703087886
aF0.997624703087886
aF0.997624703087886
aF0.997624703087886
aF0.9940828402366864
aF0.997624703087886
asg95
(lp1419
F0.00823045267489712
aF0.00823045267489712
aF0.0205761316872428
aF0.00823045267489712
aF0.00823045267489712
aF0.0205761316872428
aF0.00823045267489712
aF0.00823045267489712
aF0.00823045267489712
aF0.00823045267489712
aF0.00823045267489712
aF0.0205761316872428
aF0.00823045267489712
aF0.0205761316872428
aF0.00823045267489712
aF0.00823045267489712
aF0.00823045267489712
aF0.00823045267489712
aF0.0205761316872428
aF0.00823045267489712
aF0.00823045267489712
aF0.00823045267489712
aF0.00823045267489712
aF0.0205761316872428
aF0.00823045267489712
asg97
(lp1420
F1.0
aF1.0
aF1.0
aF1.0
aF1.0
aF1.0
aF1.0
aF1.0
aF1.0
aF1.0
aF1.0
aF1.0
aF1.0
aF1.0
aF1.0
aF1.0
aF1.0
aF1.0
aF1.0
aF1.0
aF1.0
aF1.0
aF1.0
aF1.0
aF1.0
assg265
(dp1421
g5
(lp1422
F0.9969834087481146
aF0.9969834087481146
aF0.9969834087481146
aF0.9969834087481146
aF0.9969834087481146
aF0.9969834087481146
aF0.9969834087481146
aF0.9969834087481146
aF0.9969834087481146
aF0.9969834087481146
aF0.9969834087481146
aF0.9969834087481146
aF0.9969834087481146
aF0.9969834087481146
aF0.9969834087481146
aF0.9969834087481146
aF0.9969834087481146
aF0.9969834087481146
aF0.9969834087481146
aF0.9969834087481146
aF0.9969834087481146
aF0.9969834087481146
aF0.9969834087481146
aF0.9969834087481146
aF0.9969834087481146
asg7
(lp1423
F0.995260663507109
aF0.995260663507109
aF0.995260663507109
aF0.995260663507109
aF0.995260663507109
aF0.995260663507109
aF0.995260663507109
aF0.995260663507109
aF0.995260663507109
aF0.995260663507109
aF0.995260663507109
aF0.995260663507109
aF0.995260663507109
aF0.995260663507109
aF0.995260663507109
aF0.995260663507109
aF0.995260663507109
aF0.995260663507109
aF0.995260663507109
aF0.995260663507109
aF0.995260663507109
aF0.995260663507109
aF0.995260663507109
aF0.995260663507109
aF0.995260663507109
asg9
(lp1424
g11
(g15
S's\xe1\xae\xbeI\xde\xef?'
p1425
tp1426
Rp1427
ag11
(g15
S's\xe1\xae\xbeI\xde\xef?'
p1428
tp1429
Rp1430
ag11
(g15
S's\xe1\xae\xbeI\xde\xef?'
p1431
tp1432
Rp1433
ag11
(g15
S's\xe1\xae\xbeI\xde\xef?'
p1434
tp1435
Rp1436
ag11
(g15
S's\xe1\xae\xbeI\xde\xef?'
p1437
tp1438
Rp1439
ag11
(g15
S's\xe1\xae\xbeI\xde\xef?'
p1440
tp1441
Rp1442
ag11
(g15
S's\xe1\xae\xbeI\xde\xef?'
p1443
tp1444
Rp1445
ag11
(g15
S's\xe1\xae\xbeI\xde\xef?'
p1446
tp1447
Rp1448
ag11
(g15
S's\xe1\xae\xbeI\xde\xef?'
p1449
tp1450
Rp1451
ag11
(g15
S's\xe1\xae\xbeI\xde\xef?'
p1452
tp1453
Rp1454
ag11
(g15
S's\xe1\xae\xbeI\xde\xef?'
p1455
tp1456
Rp1457
ag11
(g15
S's\xe1\xae\xbeI\xde\xef?'
p1458
tp1459
Rp1460
ag11
(g15
S's\xe1\xae\xbeI\xde\xef?'
p1461
tp1462
Rp1463
ag11
(g15
S's\xe1\xae\xbeI\xde\xef?'
p1464
tp1465
Rp1466
ag11
(g15
S's\xe1\xae\xbeI\xde\xef?'
p1467
tp1468
Rp1469
ag11
(g15
S's\xe1\xae\xbeI\xde\xef?'
p1470
tp1471
Rp1472
ag11
(g15
S's\xe1\xae\xbeI\xde\xef?'
p1473
tp1474
Rp1475
ag11
(g15
S's\xe1\xae\xbeI\xde\xef?'
p1476
tp1477
Rp1478
ag11
(g15
S's\xe1\xae\xbeI\xde\xef?'
p1479
tp1480
Rp1481
ag11
(g15
S's\xe1\xae\xbeI\xde\xef?'
p1482
tp1483
Rp1484
ag11
(g15
S's\xe1\xae\xbeI\xde\xef?'
p1485
tp1486
Rp1487
ag11
(g15
S's\xe1\xae\xbeI\xde\xef?'
p1488
tp1489
Rp1490
ag11
(g15
S's\xe1\xae\xbeI\xde\xef?'
p1491
tp1492
Rp1493
ag11
(g15
S's\xe1\xae\xbeI\xde\xef?'
p1494
tp1495
Rp1496
ag11
(g15
S's\xe1\xae\xbeI\xde\xef?'
p1497
tp1498
Rp1499
asg93
(lp1500
F0.997624703087886
aF0.997624703087886
aF0.997624703087886
aF0.997624703087886
aF0.997624703087886
aF0.997624703087886
aF0.997624703087886
aF0.997624703087886
aF0.997624703087886
aF0.997624703087886
aF0.997624703087886
aF0.997624703087886
aF0.997624703087886
aF0.997624703087886
aF0.997624703087886
aF0.997624703087886
aF0.997624703087886
aF0.997624703087886
aF0.997624703087886
aF0.997624703087886
aF0.997624703087886
aF0.997624703087886
aF0.997624703087886
aF0.997624703087886
aF0.997624703087886
asg95
(lp1501
F0.00823045267489712
aF0.00823045267489712
aF0.00823045267489712
aF0.00823045267489712
aF0.00823045267489712
aF0.00823045267489712
aF0.00823045267489712
aF0.00823045267489712
aF0.00823045267489712
aF0.00823045267489712
aF0.00823045267489712
aF0.00823045267489712
aF0.00823045267489712
aF0.00823045267489712
aF0.00823045267489712
aF0.00823045267489712
aF0.00823045267489712
aF0.00823045267489712
aF0.00823045267489712
aF0.00823045267489712
aF0.00823045267489712
aF0.00823045267489712
aF0.00823045267489712
aF0.00823045267489712
aF0.00823045267489712
asg97
(lp1502
F1.0
aF1.0
aF1.0
aF1.0
aF1.0
aF1.0
aF1.0
aF1.0
aF1.0
aF1.0
aF1.0
aF1.0
aF1.0
aF1.0
aF1.0
aF1.0
aF1.0
aF1.0
aF1.0
aF1.0
aF1.0
aF1.0
aF1.0
aF1.0
aF1.0
assg348
(dp1503
g5
(lp1504
F0.45248868778280543
aF0.45248868778280543
aF0.45248868778280543
aF0.45248868778280543
aF0.45248868778280543
aF0.45248868778280543
aF0.45248868778280543
aF0.45248868778280543
aF0.45248868778280543
aF0.45248868778280543
aF0.45248868778280543
aF0.45248868778280543
aF0.45248868778280543
aF0.45248868778280543
aF0.45248868778280543
aF0.45248868778280543
aF0.45248868778280543
aF0.45248868778280543
aF0.45248868778280543
aF0.45248868778280543
aF0.45248868778280543
aF0.45248868778280543
aF0.45248868778280543
aF0.45248868778280543
aF0.45248868778280543
asg7
(lp1505
F0.9672131147540983
aF0.9672131147540983
aF0.9672131147540983
aF0.9672131147540983
aF0.9672131147540983
aF0.9672131147540983
aF0.9672131147540983
aF0.9672131147540983
aF0.9672131147540983
aF0.9672131147540983
aF0.9672131147540983
aF0.9672131147540983
aF0.9672131147540983
aF0.9672131147540983
aF0.9672131147540983
aF0.9672131147540983
aF0.9672131147540983
aF0.9672131147540983
aF0.9672131147540983
aF0.9672131147540983
aF0.9672131147540983
aF0.9672131147540983
aF0.9672131147540983
aF0.9672131147540983
aF0.9672131147540983
asg9
(lp1506
g11
(g15
S'iE\xee\xb4\xad\x1d\xe2?'
p1507
tp1508
Rp1509
ag11
(g15
S'iE\xee\xb4\xad\x1d\xe2?'
p1510
tp1511
Rp1512
ag11
(g15
S'iE\xee\xb4\xad\x1d\xe2?'
p1513
tp1514
Rp1515
ag11
(g15
S'iE\xee\xb4\xad\x1d\xe2?'
p1516
tp1517
Rp1518
ag11
(g15
S'iE\xee\xb4\xad\x1d\xe2?'
p1519
tp1520
Rp1521
ag11
(g15
S'iE\xee\xb4\xad\x1d\xe2?'
p1522
tp1523
Rp1524
ag11
(g15
S'iE\xee\xb4\xad\x1d\xe2?'
p1525
tp1526
Rp1527
ag11
(g15
S'iE\xee\xb4\xad\x1d\xe2?'
p1528
tp1529
Rp1530
ag11
(g15
S'iE\xee\xb4\xad\x1d\xe2?'
p1531
tp1532
Rp1533
ag11
(g15
S'iE\xee\xb4\xad\x1d\xe2?'
p1534
tp1535
Rp1536
ag11
(g15
S'iE\xee\xb4\xad\x1d\xe2?'
p1537
tp1538
Rp1539
ag11
(g15
S'iE\xee\xb4\xad\x1d\xe2?'
p1540
tp1541
Rp1542
ag11
(g15
S'iE\xee\xb4\xad\x1d\xe2?'
p1543
tp1544
Rp1545
ag11
(g15
S'iE\xee\xb4\xad\x1d\xe2?'
p1546
tp1547
Rp1548
ag11
(g15
S'iE\xee\xb4\xad\x1d\xe2?'
p1549
tp1550
Rp1551
ag11
(g15
S'iE\xee\xb4\xad\x1d\xe2?'
p1552
tp1553
Rp1554
ag11
(g15
S'iE\xee\xb4\xad\x1d\xe2?'
p1555
tp1556
Rp1557
ag11
(g15
S'iE\xee\xb4\xad\x1d\xe2?'
p1558
tp1559
Rp1560
ag11
(g15
S'iE\xee\xb4\xad\x1d\xe2?'
p1561
tp1562
Rp1563
ag11
(g15
S'iE\xee\xb4\xad\x1d\xe2?'
p1564
tp1565
Rp1566
ag11
(g15
S'iE\xee\xb4\xad\x1d\xe2?'
p1567
tp1568
Rp1569
ag11
(g15
S'iE\xee\xb4\xad\x1d\xe2?'
p1570
tp1571
Rp1572
ag11
(g15
S'iE\xee\xb4\xad\x1d\xe2?'
p1573
tp1574
Rp1575
ag11
(g15
S'iE\xee\xb4\xad\x1d\xe2?'
p1576
tp1577
Rp1578
ag11
(g15
S'iE\xee\xb4\xad\x1d\xe2?'
p1579
tp1580
Rp1581
asg93
(lp1582
F0.24532224532224534
aF0.24532224532224534
aF0.24532224532224534
aF0.24532224532224534
aF0.24532224532224534
aF0.24532224532224534
aF0.24532224532224534
aF0.24532224532224534
aF0.24532224532224534
aF0.24532224532224534
aF0.24532224532224534
aF0.24532224532224534
aF0.24532224532224534
aF0.24532224532224534
aF0.24532224532224534
aF0.24532224532224534
aF0.24532224532224534
aF0.24532224532224534
aF0.24532224532224534
aF0.24532224532224534
aF0.24532224532224534
aF0.24532224532224534
aF0.24532224532224534
aF0.24532224532224534
aF0.24532224532224534
asg95
(lp1583
F0.00823045267489712
aF0.00823045267489712
aF0.00823045267489712
aF0.00823045267489712
aF0.00823045267489712
aF0.00823045267489712
aF0.00823045267489712
aF0.00823045267489712
aF0.00823045267489712
aF0.00823045267489712
aF0.00823045267489712
aF0.00823045267489712
aF0.00823045267489712
aF0.00823045267489712
aF0.00823045267489712
aF0.00823045267489712
aF0.00823045267489712
aF0.00823045267489712
aF0.00823045267489712
aF0.00823045267489712
aF0.00823045267489712
aF0.00823045267489712
aF0.00823045267489712
aF0.00823045267489712
aF0.00823045267489712
asg97
(lp1584
F0.14047619047619048
aF0.14047619047619048
aF0.14047619047619048
aF0.14047619047619048
aF0.14047619047619048
aF0.14047619047619048
aF0.14047619047619048
aF0.14047619047619048
aF0.14047619047619048
aF0.14047619047619048
aF0.14047619047619048
aF0.14047619047619048
aF0.14047619047619048
aF0.14047619047619048
aF0.14047619047619048
aF0.14047619047619048
aF0.14047619047619048
aF0.14047619047619048
aF0.14047619047619048
aF0.14047619047619048
aF0.14047619047619048
aF0.14047619047619048
aF0.14047619047619048
aF0.14047619047619048
aF0.14047619047619048
assg431
(dp1585
g5
(lp1586
F0.9969834087481146
aF0.9969834087481146
aF0.9969834087481146
aF0.9969834087481146
aF0.9969834087481146
aF0.9969834087481146
aF0.9969834087481146
aF0.9969834087481146
aF0.9969834087481146
aF0.9969834087481146
aF0.9969834087481146
aF0.9969834087481146
aF0.9849170437405732
aF0.9969834087481146
aF0.9969834087481146
aF0.9969834087481146
aF0.9969834087481146
aF0.9969834087481146
aF0.9969834087481146
aF0.9969834087481146
aF0.9969834087481146
aF0.9909502262443439
aF0.9969834087481146
aF0.9969834087481146
aF0.9969834087481146
asg7
(lp1587
F0.995260663507109
aF0.995260663507109
aF0.995260663507109
aF0.995260663507109
aF0.995260663507109
aF0.995260663507109
aF0.995260663507109
aF0.995260663507109
aF0.995260663507109
aF0.995260663507109
aF0.995260663507109
aF0.995260663507109
aF0.9951690821256038
aF0.995260663507109
aF0.995260663507109
aF0.995260663507109
aF0.995260663507109
aF0.995260663507109
aF0.995260663507109
aF0.995260663507109
aF0.995260663507109
aF0.9952153110047847
aF0.995260663507109
aF0.995260663507109
aF0.995260663507109
asg9
(lp1588
g11
(g15
S's\xe1\xae\xbeI\xde\xef?'
p1589
tp1590
Rp1591
ag11
(g15
S's\xe1\xae\xbeI\xde\xef?'
p1592
tp1593
Rp1594
ag11
(g15
S's\xe1\xae\xbeI\xde\xef?'
p1595
tp1596
Rp1597
ag11
(g15
S's\xe1\xae\xbeI\xde\xef?'
p1598
tp1599
Rp1600
ag11
(g15
S's\xe1\xae\xbeI\xde\xef?'
p1601
tp1602
Rp1603
ag11
(g15
S's\xe1\xae\xbeI\xde\xef?'
p1604
tp1605
Rp1606
ag11
(g15
S's\xe1\xae\xbeI\xde\xef?'
p1607
tp1608
Rp1609
ag11
(g15
S's\xe1\xae\xbeI\xde\xef?'
p1610
tp1611
Rp1612
ag11
(g15
S's\xe1\xae\xbeI\xde\xef?'
p1613
tp1614
Rp1615
ag11
(g15
S's\xe1\xae\xbeI\xde\xef?'
p1616
tp1617
Rp1618
ag11
(g15
S's\xe1\xae\xbeI\xde\xef?'
p1619
tp1620
Rp1621
ag11
(g15
S's\xe1\xae\xbeI\xde\xef?'
p1622
tp1623
Rp1624
ag11
(g15
S'\x93\xdc`\xdeD\x90\xef?'
p1625
tp1626
Rp1627
ag11
(g15
S's\xe1\xae\xbeI\xde\xef?'
p1628
tp1629
Rp1630
ag11
(g15
S's\xe1\xae\xbeI\xde\xef?'
p1631
tp1632
Rp1633
ag11
(g15
S's\xe1\xae\xbeI\xde\xef?'
p1634
tp1635
Rp1636
ag11
(g15
S's\xe1\xae\xbeI\xde\xef?'
p1637
tp1638
Rp1639
ag11
(g15
S's\xe1\xae\xbeI\xde\xef?'
p1640
tp1641
Rp1642
ag11
(g15
S's\xe1\xae\xbeI\xde\xef?'
p1643
tp1644
Rp1645
ag11
(g15
S's\xe1\xae\xbeI\xde\xef?'
p1646
tp1647
Rp1648
ag11
(g15
S's\xe1\xae\xbeI\xde\xef?'
p1649
tp1650
Rp1651
ag11
(g15
S'\x03\xdf\x87NG\xb7\xef?'
p1652
tp1653
Rp1654
ag11
(g15
S's\xe1\xae\xbeI\xde\xef?'
p1655
tp1656
Rp1657
ag11
(g15
S's\xe1\xae\xbeI\xde\xef?'
p1658
tp1659
Rp1660
ag11
(g15
S's\xe1\xae\xbeI\xde\xef?'
p1661
tp1662
Rp1663
asg93
(lp1664
F0.997624703087886
aF0.997624703087886
aF0.997624703087886
aF0.997624703087886
aF0.997624703087886
aF0.997624703087886
aF0.997624703087886
aF0.997624703087886
aF0.997624703087886
aF0.997624703087886
aF0.997624703087886
aF0.997624703087886
aF0.988009592326139
aF0.997624703087886
aF0.997624703087886
aF0.997624703087886
aF0.997624703087886
aF0.997624703087886
aF0.997624703087886
aF0.997624703087886
aF0.997624703087886
aF0.9928400954653939
aF0.997624703087886
aF0.997624703087886
aF0.997624703087886
asg95
(lp1665
F0.00823045267489712
aF0.00823045267489712
aF0.00823045267489712
aF0.00823045267489712
aF0.00823045267489712
aF0.00823045267489712
aF0.00823045267489712
aF0.00823045267489712
aF0.00823045267489712
aF0.00823045267489712
aF0.00823045267489712
aF0.00823045267489712
aF0.00823045267489712
aF0.00823045267489712
aF0.00823045267489712
aF0.00823045267489712
aF0.00823045267489712
aF0.00823045267489712
aF0.00823045267489712
aF0.00823045267489712
aF0.00823045267489712
aF0.00823045267489712
aF0.00823045267489712
aF0.00823045267489712
aF0.00823045267489712
asg97
(lp1666
F1.0
aF1.0
aF1.0
aF1.0
aF1.0
aF1.0
aF1.0
aF1.0
aF1.0
aF1.0
aF1.0
aF1.0
aF0.9809523809523809
aF1.0
aF1.0
aF1.0
aF1.0
aF1.0
aF1.0
aF1.0
aF1.0
aF0.9904761904761905
aF1.0
aF1.0
aF1.0
assg514
(dp1667
g5
(lp1668
F0.9969834087481146
aF0.9969834087481146
aF0.9969834087481146
aF0.9969834087481146
aF0.9969834087481146
aF0.9969834087481146
aF0.9969834087481146
aF0.9909502262443439
aF0.9969834087481146
aF0.9969834087481146
aF0.9849170437405732
aF0.9969834087481146
aF0.9969834087481146
aF0.9909502262443439
aF0.9969834087481146
aF0.9969834087481146
aF0.9969834087481146
aF0.8446455505279035
aF0.9969834087481146
aF0.9969834087481146
aF0.9969834087481146
aF0.9969834087481146
aF0.9969834087481146
aF0.9969834087481146
aF0.9788838612368024
asg7
(lp1669
F0.995260663507109
aF0.995260663507109
aF0.995260663507109
aF0.995260663507109
aF0.995260663507109
aF0.995260663507109
aF0.995260663507109
aF0.9952153110047847
aF0.995260663507109
aF0.995260663507109
aF0.9951690821256038
aF0.995260663507109
aF0.995260663507109
aF0.9952153110047847
aF0.995260663507109
aF0.995260663507109
aF0.995260663507109
aF0.9937694704049844
aF0.995260663507109
aF0.995260663507109
aF0.995260663507109
aF0.995260663507109
aF0.995260663507109
aF0.995260663507109
aF0.9951219512195122
asg9
(lp1670
g11
(g15
S's\xe1\xae\xbeI\xde\xef?'
p1671
tp1672
Rp1673
ag11
(g15
S's\xe1\xae\xbeI\xde\xef?'
p1674
tp1675
Rp1676
ag11
(g15
S's\xe1\xae\xbeI\xde\xef?'
p1677
tp1678
Rp1679
ag11
(g15
S's\xe1\xae\xbeI\xde\xef?'
p1680
tp1681
Rp1682
ag11
(g15
S's\xe1\xae\xbeI\xde\xef?'
p1683
tp1684
Rp1685
ag11
(g15
S's\xe1\xae\xbeI\xde\xef?'
p1686
tp1687
Rp1688
ag11
(g15
S's\xe1\xae\xbeI\xde\xef?'
p1689
tp1690
Rp1691
ag11
(g15
S'\x03\xdf\x87NG\xb7\xef?'
p1692
tp1693
Rp1694
ag11
(g15
S's\xe1\xae\xbeI\xde\xef?'
p1695
tp1696
Rp1697
ag11
(g15
S's\xe1\xae\xbeI\xde\xef?'
p1698
tp1699
Rp1700
ag11
(g15
S'\x93\xdc`\xdeD\x90\xef?'
p1701
tp1702
Rp1703
ag11
(g15
S's\xe1\xae\xbeI\xde\xef?'
p1704
tp1705
Rp1706
ag11
(g15
S's\xe1\xae\xbeI\xde\xef?'
p1707
tp1708
Rp1709
ag11
(g15
S'\x03\xdf\x87NG\xb7\xef?'
p1710
tp1711
Rp1712
ag11
(g15
S's\xe1\xae\xbeI\xde\xef?'
p1713
tp1714
Rp1715
ag11
(g15
S's\xe1\xae\xbeI\xde\xef?'
p1716
tp1717
Rp1718
ag11
(g15
S's\xe1\xae\xbeI\xde\xef?'
p1719
tp1720
Rp1721
ag11
(g15
S'\xe3\xe3\xd5.L\x05\xec?'
p1722
tp1723
Rp1724
ag11
(g15
S's\xe1\xae\xbeI\xde\xef?'
p1725
tp1726
Rp1727
ag11
(g15
S's\xe1\xae\xbeI\xde\xef?'
p1728
tp1729
Rp1730
ag11
(g15
S's\xe1\xae\xbeI\xde\xef?'
p1731
tp1732
Rp1733
ag11
(g15
S's\xe1\xae\xbeI\xde\xef?'
p1734
tp1735
Rp1736
ag11
(g15
S's\xe1\xae\xbeI\xde\xef?'
p1737
tp1738
Rp1739
ag11
(g15
S's\xe1\xae\xbeI\xde\xef?'
p1740
tp1741
Rp1742
ag11
(g15
S'$\xda9nBi\xef?'
p1743
tp1744
Rp1745
asg93
(lp1746
F0.997624703087886
aF0.997624703087886
aF0.997624703087886
aF0.997624703087886
aF0.997624703087886
aF0.997624703087886
aF0.997624703087886
aF0.9928400954653939
aF0.997624703087886
aF0.997624703087886
aF0.988009592326139
aF0.997624703087886
aF0.997624703087886
aF0.9928400954653939
aF0.997624703087886
aF0.997624703087886
aF0.997624703087886
aF0.8609986504723346
aF0.997624703087886
aF0.997624703087886
aF0.997624703087886
aF0.997624703087886
aF0.997624703087886
aF0.997624703087886
aF0.983132530120482
asg95
(lp1747
F0.00823045267489712
aF0.00823045267489712
aF0.00823045267489712
aF0.00823045267489712
aF0.00823045267489712
aF0.00823045267489712
aF0.00823045267489712
aF0.00823045267489712
aF0.00823045267489712
aF0.00823045267489712
aF0.00823045267489712
aF0.00823045267489712
aF0.00823045267489712
aF0.00823045267489712
aF0.00823045267489712
aF0.00823045267489712
aF0.00823045267489712
aF0.00823045267489712
aF0.00823045267489712
aF0.00823045267489712
aF0.00823045267489712
aF0.00823045267489712
aF0.00823045267489712
aF0.00823045267489712
aF0.00823045267489712
asg97
(lp1748
F1.0
aF1.0
aF1.0
aF1.0
aF1.0
aF1.0
aF1.0
aF0.9904761904761905
aF1.0
aF1.0
aF0.9809523809523809
aF1.0
aF1.0
aF0.9904761904761905
aF1.0
aF1.0
aF1.0
aF0.7595238095238095
aF1.0
aF1.0
aF1.0
aF1.0
aF1.0
aF1.0
aF0.9714285714285714
asssS'Yahoo'
p1749
(dp1750
g3
(dp1751
g5
(lp1752
F0.5192307692307693
aF0.5192307692307693
aF0.5192307692307693
aF0.5192307692307693
aF0.5192307692307693
aF0.5192307692307693
aF0.5192307692307693
aF0.5192307692307693
aF0.5192307692307693
aF0.5192307692307693
aF0.5192307692307693
aF0.5192307692307693
aF0.5192307692307693
aF0.5192307692307693
aF0.5192307692307693
aF0.5192307692307693
aF0.5192307692307693
aF0.5192307692307693
aF0.5192307692307693
aF0.5192307692307693
aF0.5192307692307693
aF0.5192307692307693
aF0.5192307692307693
aF0.5192307692307693
aF0.5192307692307693
asg7
(lp1753
F0.5192307692307693
aF0.5192307692307693
aF0.5192307692307693
aF0.5192307692307693
aF0.5192307692307693
aF0.5192307692307693
aF0.5192307692307693
aF0.5192307692307693
aF0.5192307692307693
aF0.5192307692307693
aF0.5192307692307693
aF0.5192307692307693
aF0.5192307692307693
aF0.5192307692307693
aF0.5192307692307693
aF0.5192307692307693
aF0.5192307692307693
aF0.5192307692307693
aF0.5192307692307693
aF0.5192307692307693
aF0.5192307692307693
aF0.5192307692307693
aF0.5192307692307693
aF0.5192307692307693
aF0.5192307692307693
asg9
(lp1754
g11
(g15
S'\x00\x00\x00\x00\x00\x00\xe0?'
p1755
tp1756
Rp1757
ag11
(g15
S'\x00\x00\x00\x00\x00\x00\xe0?'
p1758
tp1759
Rp1760
ag11
(g15
S'\x00\x00\x00\x00\x00\x00\xe0?'
p1761
tp1762
Rp1763
ag11
(g15
S'\x00\x00\x00\x00\x00\x00\xe0?'
p1764
tp1765
Rp1766
ag11
(g15
S'\x00\x00\x00\x00\x00\x00\xe0?'
p1767
tp1768
Rp1769
ag11
(g15
S'\x00\x00\x00\x00\x00\x00\xe0?'
p1770
tp1771
Rp1772
ag11
(g15
S'\x00\x00\x00\x00\x00\x00\xe0?'
p1773
tp1774
Rp1775
ag11
(g15
S'\x00\x00\x00\x00\x00\x00\xe0?'
p1776
tp1777
Rp1778
ag11
(g15
S'\x00\x00\x00\x00\x00\x00\xe0?'
p1779
tp1780
Rp1781
ag11
(g15
S'\x00\x00\x00\x00\x00\x00\xe0?'
p1782
tp1783
Rp1784
ag11
(g15
S'\x00\x00\x00\x00\x00\x00\xe0?'
p1785
tp1786
Rp1787
ag11
(g15
S'\x00\x00\x00\x00\x00\x00\xe0?'
p1788
tp1789
Rp1790
ag11
(g15
S'\x00\x00\x00\x00\x00\x00\xe0?'
p1791
tp1792
Rp1793
ag11
(g15
S'\x00\x00\x00\x00\x00\x00\xe0?'
p1794
tp1795
Rp1796
ag11
(g15
S'\x00\x00\x00\x00\x00\x00\xe0?'
p1797
tp1798
Rp1799
ag11
(g15
S'\x00\x00\x00\x00\x00\x00\xe0?'
p1800
tp1801
Rp1802
ag11
(g15
S'\x00\x00\x00\x00\x00\x00\xe0?'
p1803
tp1804
Rp1805
ag11
(g15
S'\x00\x00\x00\x00\x00\x00\xe0?'
p1806
tp1807
Rp1808
ag11
(g15
S'\x00\x00\x00\x00\x00\x00\xe0?'
p1809
tp1810
Rp1811
ag11
(g15
S'\x00\x00\x00\x00\x00\x00\xe0?'
p1812
tp1813
Rp1814
ag11
(g15
S'\x00\x00\x00\x00\x00\x00\xe0?'
p1815
tp1816
Rp1817
ag11
(g15
S'\x00\x00\x00\x00\x00\x00\xe0?'
p1818
tp1819
Rp1820
ag11
(g15
S'\x00\x00\x00\x00\x00\x00\xe0?'
p1821
tp1822
Rp1823
ag11
(g15
S'\x00\x00\x00\x00\x00\x00\xe0?'
p1824
tp1825
Rp1826
ag11
(g15
S'\x00\x00\x00\x00\x00\x00\xe0?'
p1827
tp1828
Rp1829
asg93
(lp1830
F0.6835443037974684
aF0.6835443037974684
aF0.6835443037974684
aF0.6835443037974684
aF0.6835443037974684
aF0.6835443037974684
aF0.6835443037974684
aF0.6835443037974684
aF0.6835443037974684
aF0.6835443037974684
aF0.6835443037974684
aF0.6835443037974684
aF0.6835443037974684
aF0.6835443037974684
aF0.6835443037974684
aF0.6835443037974684
aF0.6835443037974684
aF0.6835443037974684
aF0.6835443037974684
aF0.6835443037974684
aF0.6835443037974684
aF0.6835443037974684
aF0.6835443037974684
aF0.6835443037974684
aF0.6835443037974684
asg95
(lp1831
F1.0
aF1.0
aF1.0
aF1.0
aF1.0
aF1.0
aF1.0
aF1.0
aF1.0
aF1.0
aF1.0
aF1.0
aF1.0
aF1.0
aF1.0
aF1.0
aF1.0
aF1.0
aF1.0
aF1.0
aF1.0
aF1.0
aF1.0
aF1.0
aF1.0
asg97
(lp1832
F1.0
aF1.0
aF1.0
aF1.0
aF1.0
aF1.0
aF1.0
aF1.0
aF1.0
aF1.0
aF1.0
aF1.0
aF1.0
aF1.0
aF1.0
aF1.0
aF1.0
aF1.0
aF1.0
aF1.0
aF1.0
aF1.0
aF1.0
aF1.0
aF1.0
assg99
(dp1833
g5
(lp1834
F0.5192307692307693
aF0.5192307692307693
aF0.5192307692307693
aF0.5192307692307693
aF0.5192307692307693
aF0.5192307692307693
aF0.5192307692307693
aF0.5192307692307693
aF0.5192307692307693
aF0.5192307692307693
aF0.5192307692307693
aF0.5192307692307693
aF0.5192307692307693
aF0.5192307692307693
aF0.5192307692307693
aF0.5192307692307693
aF0.5192307692307693
aF0.5192307692307693
aF0.5192307692307693
aF0.5192307692307693
aF0.5192307692307693
aF0.5192307692307693
aF0.5192307692307693
aF0.5192307692307693
aF0.5192307692307693
asg7
(lp1835
F0.5192307692307693
aF0.5192307692307693
aF0.5192307692307693
aF0.5192307692307693
aF0.5192307692307693
aF0.5192307692307693
aF0.5192307692307693
aF0.5192307692307693
aF0.5192307692307693
aF0.5192307692307693
aF0.5192307692307693
aF0.5192307692307693
aF0.5192307692307693
aF0.5192307692307693
aF0.5192307692307693
aF0.5192307692307693
aF0.5192307692307693
aF0.5192307692307693
aF0.5192307692307693
aF0.5192307692307693
aF0.5192307692307693
aF0.5192307692307693
aF0.5192307692307693
aF0.5192307692307693
aF0.5192307692307693
asg9
(lp1836
g11
(g15
S'\x00\x00\x00\x00\x00\x00\xe0?'
p1837
tp1838
Rp1839
ag11
(g15
S'\x00\x00\x00\x00\x00\x00\xe0?'
p1840
tp1841
Rp1842
ag11
(g15
S'\x00\x00\x00\x00\x00\x00\xe0?'
p1843
tp1844
Rp1845
ag11
(g15
S'\x00\x00\x00\x00\x00\x00\xe0?'
p1846
tp1847
Rp1848
ag11
(g15
S'\x00\x00\x00\x00\x00\x00\xe0?'
p1849
tp1850
Rp1851
ag11
(g15
S'\x00\x00\x00\x00\x00\x00\xe0?'
p1852
tp1853
Rp1854
ag11
(g15
S'\x00\x00\x00\x00\x00\x00\xe0?'
p1855
tp1856
Rp1857
ag11
(g15
S'\x00\x00\x00\x00\x00\x00\xe0?'
p1858
tp1859
Rp1860
ag11
(g15
S'\x00\x00\x00\x00\x00\x00\xe0?'
p1861
tp1862
Rp1863
ag11
(g15
S'\x00\x00\x00\x00\x00\x00\xe0?'
p1864
tp1865
Rp1866
ag11
(g15
S'\x00\x00\x00\x00\x00\x00\xe0?'
p1867
tp1868
Rp1869
ag11
(g15
S'\x00\x00\x00\x00\x00\x00\xe0?'
p1870
tp1871
Rp1872
ag11
(g15
S'\x00\x00\x00\x00\x00\x00\xe0?'
p1873
tp1874
Rp1875
ag11
(g15
S'\x00\x00\x00\x00\x00\x00\xe0?'
p1876
tp1877
Rp1878
ag11
(g15
S'\x00\x00\x00\x00\x00\x00\xe0?'
p1879
tp1880
Rp1881
ag11
(g15
S'\x00\x00\x00\x00\x00\x00\xe0?'
p1882
tp1883
Rp1884
ag11
(g15
S'\x00\x00\x00\x00\x00\x00\xe0?'
p1885
tp1886
Rp1887
ag11
(g15
S'\x00\x00\x00\x00\x00\x00\xe0?'
p1888
tp1889
Rp1890
ag11
(g15
S'\x00\x00\x00\x00\x00\x00\xe0?'
p1891
tp1892
Rp1893
ag11
(g15
S'\x00\x00\x00\x00\x00\x00\xe0?'
p1894
tp1895
Rp1896
ag11
(g15
S'\x00\x00\x00\x00\x00\x00\xe0?'
p1897
tp1898
Rp1899
ag11
(g15
S'\x00\x00\x00\x00\x00\x00\xe0?'
p1900
tp1901
Rp1902
ag11
(g15
S'\x00\x00\x00\x00\x00\x00\xe0?'
p1903
tp1904
Rp1905
ag11
(g15
S'\x00\x00\x00\x00\x00\x00\xe0?'
p1906
tp1907
Rp1908
ag11
(g15
S'\x00\x00\x00\x00\x00\x00\xe0?'
p1909
tp1910
Rp1911
asg93
(lp1912
F0.6835443037974684
aF0.6835443037974684
aF0.6835443037974684
aF0.6835443037974684
aF0.6835443037974684
aF0.6835443037974684
aF0.6835443037974684
aF0.6835443037974684
aF0.6835443037974684
aF0.6835443037974684
aF0.6835443037974684
aF0.6835443037974684
aF0.6835443037974684
aF0.6835443037974684
aF0.6835443037974684
aF0.6835443037974684
aF0.6835443037974684
aF0.6835443037974684
aF0.6835443037974684
aF0.6835443037974684
aF0.6835443037974684
aF0.6835443037974684
aF0.6835443037974684
aF0.6835443037974684
aF0.6835443037974684
asg95
(lp1913
F1.0
aF1.0
aF1.0
aF1.0
aF1.0
aF1.0
aF1.0
aF1.0
aF1.0
aF1.0
aF1.0
aF1.0
aF1.0
aF1.0
aF1.0
aF1.0
aF1.0
aF1.0
aF1.0
aF1.0
aF1.0
aF1.0
aF1.0
aF1.0
aF1.0
asg97
(lp1914
F1.0
aF1.0
aF1.0
aF1.0
aF1.0
aF1.0
aF1.0
aF1.0
aF1.0
aF1.0
aF1.0
aF1.0
aF1.0
aF1.0
aF1.0
aF1.0
aF1.0
aF1.0
aF1.0
aF1.0
aF1.0
aF1.0
aF1.0
aF1.0
aF1.0
assg182
(dp1915
g5
(lp1916
F0.5192307692307693
aF0.5192307692307693
aF0.5192307692307693
aF0.5192307692307693
aF0.5192307692307693
aF0.5192307692307693
aF0.5192307692307693
aF0.5192307692307693
aF0.5192307692307693
aF0.5192307692307693
aF0.5192307692307693
aF0.5192307692307693
aF0.5192307692307693
aF0.5192307692307693
aF0.5192307692307693
aF0.5192307692307693
aF0.5192307692307693
aF0.5192307692307693
aF0.5192307692307693
aF0.5192307692307693
aF0.5192307692307693
aF0.5192307692307693
aF0.5192307692307693
aF0.5192307692307693
aF0.5192307692307693
asg7
(lp1917
F0.5192307692307693
aF0.5192307692307693
aF0.5192307692307693
aF0.5192307692307693
aF0.5192307692307693
aF0.5192307692307693
aF0.5192307692307693
aF0.5192307692307693
aF0.5192307692307693
aF0.5192307692307693
aF0.5192307692307693
aF0.5192307692307693
aF0.5192307692307693
aF0.5192307692307693
aF0.5192307692307693
aF0.5192307692307693
aF0.5192307692307693
aF0.5192307692307693
aF0.5192307692307693
aF0.5192307692307693
aF0.5192307692307693
aF0.5192307692307693
aF0.5192307692307693
aF0.5192307692307693
aF0.5192307692307693
asg9
(lp1918
g11
(g15
S'\x00\x00\x00\x00\x00\x00\xe0?'
p1919
tp1920
Rp1921
ag11
(g15
S'\x00\x00\x00\x00\x00\x00\xe0?'
p1922
tp1923
Rp1924
ag11
(g15
S'\x00\x00\x00\x00\x00\x00\xe0?'
p1925
tp1926
Rp1927
ag11
(g15
S'\x00\x00\x00\x00\x00\x00\xe0?'
p1928
tp1929
Rp1930
ag11
(g15
S'\x00\x00\x00\x00\x00\x00\xe0?'
p1931
tp1932
Rp1933
ag11
(g15
S'\x00\x00\x00\x00\x00\x00\xe0?'
p1934
tp1935
Rp1936
ag11
(g15
S'\x00\x00\x00\x00\x00\x00\xe0?'
p1937
tp1938
Rp1939
ag11
(g15
S'\x00\x00\x00\x00\x00\x00\xe0?'
p1940
tp1941
Rp1942
ag11
(g15
S'\x00\x00\x00\x00\x00\x00\xe0?'
p1943
tp1944
Rp1945
ag11
(g15
S'\x00\x00\x00\x00\x00\x00\xe0?'
p1946
tp1947
Rp1948
ag11
(g15
S'\x00\x00\x00\x00\x00\x00\xe0?'
p1949
tp1950
Rp1951
ag11
(g15
S'\x00\x00\x00\x00\x00\x00\xe0?'
p1952
tp1953
Rp1954
ag11
(g15
S'\x00\x00\x00\x00\x00\x00\xe0?'
p1955
tp1956
Rp1957
ag11
(g15
S'\x00\x00\x00\x00\x00\x00\xe0?'
p1958
tp1959
Rp1960
ag11
(g15
S'\x00\x00\x00\x00\x00\x00\xe0?'
p1961
tp1962
Rp1963
ag11
(g15
S'\x00\x00\x00\x00\x00\x00\xe0?'
p1964
tp1965
Rp1966
ag11
(g15
S'\x00\x00\x00\x00\x00\x00\xe0?'
p1967
tp1968
Rp1969
ag11
(g15
S'\x00\x00\x00\x00\x00\x00\xe0?'
p1970
tp1971
Rp1972
ag11
(g15
S'\x00\x00\x00\x00\x00\x00\xe0?'
p1973
tp1974
Rp1975
ag11
(g15
S'\x00\x00\x00\x00\x00\x00\xe0?'
p1976
tp1977
Rp1978
ag11
(g15
S'\x00\x00\x00\x00\x00\x00\xe0?'
p1979
tp1980
Rp1981
ag11
(g15
S'\x00\x00\x00\x00\x00\x00\xe0?'
p1982
tp1983
Rp1984
ag11
(g15
S'\x00\x00\x00\x00\x00\x00\xe0?'
p1985
tp1986
Rp1987
ag11
(g15
S'\x00\x00\x00\x00\x00\x00\xe0?'
p1988
tp1989
Rp1990
ag11
(g15
S'\x00\x00\x00\x00\x00\x00\xe0?'
p1991
tp1992
Rp1993
asg93
(lp1994
F0.6835443037974684
aF0.6835443037974684
aF0.6835443037974684
aF0.6835443037974684
aF0.6835443037974684
aF0.6835443037974684
aF0.6835443037974684
aF0.6835443037974684
aF0.6835443037974684
aF0.6835443037974684
aF0.6835443037974684
aF0.6835443037974684
aF0.6835443037974684
aF0.6835443037974684
aF0.6835443037974684
aF0.6835443037974684
aF0.6835443037974684
aF0.6835443037974684
aF0.6835443037974684
aF0.6835443037974684
aF0.6835443037974684
aF0.6835443037974684
aF0.6835443037974684
aF0.6835443037974684
aF0.6835443037974684
asg95
(lp1995
F1.0
aF1.0
aF1.0
aF1.0
aF1.0
aF1.0
aF1.0
aF1.0
aF1.0
aF1.0
aF1.0
aF1.0
aF1.0
aF1.0
aF1.0
aF1.0
aF1.0
aF1.0
aF1.0
aF1.0
aF1.0
aF1.0
aF1.0
aF1.0
aF1.0
asg97
(lp1996
F1.0
aF1.0
aF1.0
aF1.0
aF1.0
aF1.0
aF1.0
aF1.0
aF1.0
aF1.0
aF1.0
aF1.0
aF1.0
aF1.0
aF1.0
aF1.0
aF1.0
aF1.0
aF1.0
aF1.0
aF1.0
aF1.0
aF1.0
aF1.0
aF1.0
assg265
(dp1997
g5
(lp1998
F0.5192307692307693
aF0.5192307692307693
aF0.5192307692307693
aF0.5192307692307693
aF0.5192307692307693
aF0.5192307692307693
aF0.5192307692307693
aF0.5192307692307693
aF0.5192307692307693
aF0.5192307692307693
aF0.5192307692307693
aF0.5192307692307693
aF0.5192307692307693
aF0.5192307692307693
aF0.5192307692307693
aF0.5192307692307693
aF0.5192307692307693
aF0.5192307692307693
aF0.5192307692307693
aF0.5192307692307693
aF0.5192307692307693
aF0.5192307692307693
aF0.5192307692307693
aF0.5192307692307693
aF0.5192307692307693
asg7
(lp1999
F0.5192307692307693
aF0.5192307692307693
aF0.5192307692307693
aF0.5192307692307693
aF0.5192307692307693
aF0.5192307692307693
aF0.5192307692307693
aF0.5192307692307693
aF0.5192307692307693
aF0.5192307692307693
aF0.5192307692307693
aF0.5192307692307693
aF0.5192307692307693
aF0.5192307692307693
aF0.5192307692307693
aF0.5192307692307693
aF0.5192307692307693
aF0.5192307692307693
aF0.5192307692307693
aF0.5192307692307693
aF0.5192307692307693
aF0.5192307692307693
aF0.5192307692307693
aF0.5192307692307693
aF0.5192307692307693
asg9
(lp2000
g11
(g15
S'\x00\x00\x00\x00\x00\x00\xe0?'
p2001
tp2002
Rp2003
ag11
(g15
S'\x00\x00\x00\x00\x00\x00\xe0?'
p2004
tp2005
Rp2006
ag11
(g15
S'\x00\x00\x00\x00\x00\x00\xe0?'
p2007
tp2008
Rp2009
ag11
(g15
S'\x00\x00\x00\x00\x00\x00\xe0?'
p2010
tp2011
Rp2012
ag11
(g15
S'\x00\x00\x00\x00\x00\x00\xe0?'
p2013
tp2014
Rp2015
ag11
(g15
S'\x00\x00\x00\x00\x00\x00\xe0?'
p2016
tp2017
Rp2018
ag11
(g15
S'\x00\x00\x00\x00\x00\x00\xe0?'
p2019
tp2020
Rp2021
ag11
(g15
S'\x00\x00\x00\x00\x00\x00\xe0?'
p2022
tp2023
Rp2024
ag11
(g15
S'\x00\x00\x00\x00\x00\x00\xe0?'
p2025
tp2026
Rp2027
ag11
(g15
S'\x00\x00\x00\x00\x00\x00\xe0?'
p2028
tp2029
Rp2030
ag11
(g15
S'\x00\x00\x00\x00\x00\x00\xe0?'
p2031
tp2032
Rp2033
ag11
(g15
S'\x00\x00\x00\x00\x00\x00\xe0?'
p2034
tp2035
Rp2036
ag11
(g15
S'\x00\x00\x00\x00\x00\x00\xe0?'
p2037
tp2038
Rp2039
ag11
(g15
S'\x00\x00\x00\x00\x00\x00\xe0?'
p2040
tp2041
Rp2042
ag11
(g15
S'\x00\x00\x00\x00\x00\x00\xe0?'
p2043
tp2044
Rp2045
ag11
(g15
S'\x00\x00\x00\x00\x00\x00\xe0?'
p2046
tp2047
Rp2048
ag11
(g15
S'\x00\x00\x00\x00\x00\x00\xe0?'
p2049
tp2050
Rp2051
ag11
(g15
S'\x00\x00\x00\x00\x00\x00\xe0?'
p2052
tp2053
Rp2054
ag11
(g15
S'\x00\x00\x00\x00\x00\x00\xe0?'
p2055
tp2056
Rp2057
ag11
(g15
S'\x00\x00\x00\x00\x00\x00\xe0?'
p2058
tp2059
Rp2060
ag11
(g15
S'\x00\x00\x00\x00\x00\x00\xe0?'
p2061
tp2062
Rp2063
ag11
(g15
S'\x00\x00\x00\x00\x00\x00\xe0?'
p2064
tp2065
Rp2066
ag11
(g15
S'\x00\x00\x00\x00\x00\x00\xe0?'
p2067
tp2068
Rp2069
ag11
(g15
S'\x00\x00\x00\x00\x00\x00\xe0?'
p2070
tp2071
Rp2072
ag11
(g15
S'\x00\x00\x00\x00\x00\x00\xe0?'
p2073
tp2074
Rp2075
asg93
(lp2076
F0.6835443037974684
aF0.6835443037974684
aF0.6835443037974684
aF0.6835443037974684
aF0.6835443037974684
aF0.6835443037974684
aF0.6835443037974684
aF0.6835443037974684
aF0.6835443037974684
aF0.6835443037974684
aF0.6835443037974684
aF0.6835443037974684
aF0.6835443037974684
aF0.6835443037974684
aF0.6835443037974684
aF0.6835443037974684
aF0.6835443037974684
aF0.6835443037974684
aF0.6835443037974684
aF0.6835443037974684
aF0.6835443037974684
aF0.6835443037974684
aF0.6835443037974684
aF0.6835443037974684
aF0.6835443037974684
asg95
(lp2077
F1.0
aF1.0
aF1.0
aF1.0
aF1.0
aF1.0
aF1.0
aF1.0
aF1.0
aF1.0
aF1.0
aF1.0
aF1.0
aF1.0
aF1.0
aF1.0
aF1.0
aF1.0
aF1.0
aF1.0
aF1.0
aF1.0
aF1.0
aF1.0
aF1.0
asg97
(lp2078
F1.0
aF1.0
aF1.0
aF1.0
aF1.0
aF1.0
aF1.0
aF1.0
aF1.0
aF1.0
aF1.0
aF1.0
aF1.0
aF1.0
aF1.0
aF1.0
aF1.0
aF1.0
aF1.0
aF1.0
aF1.0
aF1.0
aF1.0
aF1.0
aF1.0
assg348
(dp2079
g5
(lp2080
F0.6346153846153846
aF0.5192307692307693
aF0.5192307692307693
aF0.5192307692307693
aF0.5192307692307693
aF0.5192307692307693
aF0.5192307692307693
aF0.5192307692307693
aF0.5192307692307693
aF0.5192307692307693
aF0.5192307692307693
aF0.5192307692307693
aF0.5192307692307693
aF0.5192307692307693
aF0.5192307692307693
aF0.5192307692307693
aF0.5192307692307693
aF0.5192307692307693
aF0.5192307692307693
aF0.5192307692307693
aF0.5192307692307693
aF0.5192307692307693
aF0.5192307692307693
aF0.5192307692307693
aF0.5192307692307693
asg7
(lp2081
F1.0
aF1.0
aF1.0
aF1.0
aF1.0
aF1.0
aF1.0
aF1.0
aF1.0
aF1.0
aF1.0
aF1.0
aF1.0
aF1.0
aF1.0
aF1.0
aF1.0
aF1.0
aF1.0
aF1.0
aF1.0
aF1.0
aF1.0
aF1.0
aF1.0
asg9
(lp2082
g11
(g15
S'\xdaKh/\xa1\xbd\xe4?'
p2083
tp2084
Rp2085
ag11
(g15
S'\xf6\x12\xdaKh/\xe1?'
p2086
tp2087
Rp2088
ag11
(g15
S'\xf6\x12\xdaKh/\xe1?'
p2089
tp2090
Rp2091
ag11
(g15
S'\xf6\x12\xdaKh/\xe1?'
p2092
tp2093
Rp2094
ag11
(g15
S'\xf6\x12\xdaKh/\xe1?'
p2095
tp2096
Rp2097
ag11
(g15
S'\xf6\x12\xdaKh/\xe1?'
p2098
tp2099
Rp2100
ag11
(g15
S'\xf6\x12\xdaKh/\xe1?'
p2101
tp2102
Rp2103
ag11
(g15
S'\xf6\x12\xdaKh/\xe1?'
p2104
tp2105
Rp2106
ag11
(g15
S'\xf6\x12\xdaKh/\xe1?'
p2107
tp2108
Rp2109
ag11
(g15
S'\xf6\x12\xdaKh/\xe1?'
p2110
tp2111
Rp2112
ag11
(g15
S'\xf6\x12\xdaKh/\xe1?'
p2113
tp2114
Rp2115
ag11
(g15
S'\xf6\x12\xdaKh/\xe1?'
p2116
tp2117
Rp2118
ag11
(g15
S'\xf6\x12\xdaKh/\xe1?'
p2119
tp2120
Rp2121
ag11
(g15
S'\xf6\x12\xdaKh/\xe1?'
p2122
tp2123
Rp2124
ag11
(g15
S'\xf6\x12\xdaKh/\xe1?'
p2125
tp2126
Rp2127
ag11
(g15
S'\xf6\x12\xdaKh/\xe1?'
p2128
tp2129
Rp2130
ag11
(g15
S'\xf6\x12\xdaKh/\xe1?'
p2131
tp2132
Rp2133
ag11
(g15
S'\xf6\x12\xdaKh/\xe1?'
p2134
tp2135
Rp2136
ag11
(g15
S'\xf6\x12\xdaKh/\xe1?'
p2137
tp2138
Rp2139
ag11
(g15
S'\xf6\x12\xdaKh/\xe1?'
p2140
tp2141
Rp2142
ag11
(g15
S'\xf6\x12\xdaKh/\xe1?'
p2143
tp2144
Rp2145
ag11
(g15
S'\xf6\x12\xdaKh/\xe1?'
p2146
tp2147
Rp2148
ag11
(g15
S'\xf6\x12\xdaKh/\xe1?'
p2149
tp2150
Rp2151
ag11
(g15
S'\xf6\x12\xdaKh/\xe1?'
p2152
tp2153
Rp2154
ag11
(g15
S'\xf6\x12\xdaKh/\xe1?'
p2155
tp2156
Rp2157
asg93
(lp2158
F0.45714285714285713
aF0.13793103448275862
aF0.13793103448275862
aF0.13793103448275862
aF0.13793103448275862
aF0.13793103448275862
aF0.13793103448275862
aF0.13793103448275862
aF0.13793103448275862
aF0.13793103448275862
aF0.13793103448275862
aF0.13793103448275862
aF0.13793103448275862
aF0.13793103448275862
aF0.13793103448275862
aF0.13793103448275862
aF0.13793103448275862
aF0.13793103448275862
aF0.13793103448275862
aF0.13793103448275862
aF0.13793103448275862
aF0.13793103448275862
aF0.13793103448275862
aF0.13793103448275862
aF0.13793103448275862
asg95
(lp2159
F0.0
aF0.0
aF0.0
aF0.0
aF0.0
aF0.0
aF0.0
aF0.0
aF0.0
aF0.0
aF0.0
aF0.0
aF0.0
aF0.0
aF0.0
aF0.0
aF0.0
aF0.0
aF0.0
aF0.0
aF0.0
aF0.0
aF0.0
aF0.0
aF0.0
asg97
(lp2160
F0.2962962962962963
aF0.07407407407407407
aF0.07407407407407407
aF0.07407407407407407
aF0.07407407407407407
aF0.07407407407407407
aF0.07407407407407407
aF0.07407407407407407
aF0.07407407407407407
aF0.07407407407407407
aF0.07407407407407407
aF0.07407407407407407
aF0.07407407407407407
aF0.07407407407407407
aF0.07407407407407407
aF0.07407407407407407
aF0.07407407407407407
aF0.07407407407407407
aF0.07407407407407407
aF0.07407407407407407
aF0.07407407407407407
aF0.07407407407407407
aF0.07407407407407407
aF0.07407407407407407
aF0.07407407407407407
assg431
(dp2161
g5
(lp2162
F0.5192307692307693
aF0.5192307692307693
aF0.5192307692307693
aF0.5192307692307693
aF0.5192307692307693
aF0.5192307692307693
aF0.5192307692307693
aF0.5192307692307693
aF0.5192307692307693
aF0.5192307692307693
aF0.5192307692307693
aF0.5192307692307693
aF0.5192307692307693
aF0.5192307692307693
aF0.5192307692307693
aF0.5192307692307693
aF0.5192307692307693
aF0.5192307692307693
aF0.5192307692307693
aF0.5192307692307693
aF0.5192307692307693
aF0.5192307692307693
aF0.5192307692307693
aF0.5192307692307693
aF0.5192307692307693
asg7
(lp2163
F0.5192307692307693
aF0.5192307692307693
aF0.5192307692307693
aF0.5192307692307693
aF0.5192307692307693
aF0.5192307692307693
aF0.5192307692307693
aF0.5192307692307693
aF0.5192307692307693
aF0.5192307692307693
aF0.5192307692307693
aF0.5192307692307693
aF0.5192307692307693
aF0.5192307692307693
aF0.5192307692307693
aF0.5192307692307693
aF0.5192307692307693
aF0.5192307692307693
aF0.5192307692307693
aF0.5192307692307693
aF0.5192307692307693
aF0.5192307692307693
aF0.5192307692307693
aF0.5192307692307693
aF0.5192307692307693
asg9
(lp2164
g11
(g15
S'\x00\x00\x00\x00\x00\x00\xe0?'
p2165
tp2166
Rp2167
ag11
(g15
S'\x00\x00\x00\x00\x00\x00\xe0?'
p2168
tp2169
Rp2170
ag11
(g15
S'\x00\x00\x00\x00\x00\x00\xe0?'
p2171
tp2172
Rp2173
ag11
(g15
S'\x00\x00\x00\x00\x00\x00\xe0?'
p2174
tp2175
Rp2176
ag11
(g15
S'\x00\x00\x00\x00\x00\x00\xe0?'
p2177
tp2178
Rp2179
ag11
(g15
S'\x00\x00\x00\x00\x00\x00\xe0?'
p2180
tp2181
Rp2182
ag11
(g15
S'\x00\x00\x00\x00\x00\x00\xe0?'
p2183
tp2184
Rp2185
ag11
(g15
S'\x00\x00\x00\x00\x00\x00\xe0?'
p2186
tp2187
Rp2188
ag11
(g15
S'\x00\x00\x00\x00\x00\x00\xe0?'
p2189
tp2190
Rp2191
ag11
(g15
S'\x00\x00\x00\x00\x00\x00\xe0?'
p2192
tp2193
Rp2194
ag11
(g15
S'\x00\x00\x00\x00\x00\x00\xe0?'
p2195
tp2196
Rp2197
ag11
(g15
S'\x00\x00\x00\x00\x00\x00\xe0?'
p2198
tp2199
Rp2200
ag11
(g15
S'\x00\x00\x00\x00\x00\x00\xe0?'
p2201
tp2202
Rp2203
ag11
(g15
S'\x00\x00\x00\x00\x00\x00\xe0?'
p2204
tp2205
Rp2206
ag11
(g15
S'\x00\x00\x00\x00\x00\x00\xe0?'
p2207
tp2208
Rp2209
ag11
(g15
S'\x00\x00\x00\x00\x00\x00\xe0?'
p2210
tp2211
Rp2212
ag11
(g15
S'\x00\x00\x00\x00\x00\x00\xe0?'
p2213
tp2214
Rp2215
ag11
(g15
S'\x00\x00\x00\x00\x00\x00\xe0?'
p2216
tp2217
Rp2218
ag11
(g15
S'\x00\x00\x00\x00\x00\x00\xe0?'
p2219
tp2220
Rp2221
ag11
(g15
S'\x00\x00\x00\x00\x00\x00\xe0?'
p2222
tp2223
Rp2224
ag11
(g15
S'\x00\x00\x00\x00\x00\x00\xe0?'
p2225
tp2226
Rp2227
ag11
(g15
S'\x00\x00\x00\x00\x00\x00\xe0?'
p2228
tp2229
Rp2230
ag11
(g15
S'\x00\x00\x00\x00\x00\x00\xe0?'
p2231
tp2232
Rp2233
ag11
(g15
S'\x00\x00\x00\x00\x00\x00\xe0?'
p2234
tp2235
Rp2236
ag11
(g15
S'\x00\x00\x00\x00\x00\x00\xe0?'
p2237
tp2238
Rp2239
asg93
(lp2240
F0.6835443037974684
aF0.6835443037974684
aF0.6835443037974684
aF0.6835443037974684
aF0.6835443037974684
aF0.6835443037974684
aF0.6835443037974684
aF0.6835443037974684
aF0.6835443037974684
aF0.6835443037974684
aF0.6835443037974684
aF0.6835443037974684
aF0.6835443037974684
aF0.6835443037974684
aF0.6835443037974684
aF0.6835443037974684
aF0.6835443037974684
aF0.6835443037974684
aF0.6835443037974684
aF0.6835443037974684
aF0.6835443037974684
aF0.6835443037974684
aF0.6835443037974684
aF0.6835443037974684
aF0.6835443037974684
asg95
(lp2241
F1.0
aF1.0
aF1.0
aF1.0
aF1.0
aF1.0
aF1.0
aF1.0
aF1.0
aF1.0
aF1.0
aF1.0
aF1.0
aF1.0
aF1.0
aF1.0
aF1.0
aF1.0
aF1.0
aF1.0
aF1.0
aF1.0
aF1.0
aF1.0
aF1.0
asg97
(lp2242
F1.0
aF1.0
aF1.0
aF1.0
aF1.0
aF1.0
aF1.0
aF1.0
aF1.0
aF1.0
aF1.0
aF1.0
aF1.0
aF1.0
aF1.0
aF1.0
aF1.0
aF1.0
aF1.0
aF1.0
aF1.0
aF1.0
aF1.0
aF1.0
aF1.0
assg514
(dp2243
g5
(lp2244
F0.5192307692307693
aF0.5192307692307693
aF0.5192307692307693
aF0.5192307692307693
aF0.5192307692307693
aF0.5192307692307693
aF0.5192307692307693
aF0.5192307692307693
aF0.5192307692307693
aF0.5192307692307693
aF0.5
aF0.5192307692307693
aF0.5192307692307693
aF0.5192307692307693
aF0.5192307692307693
aF0.5192307692307693
aF0.5192307692307693
aF0.5192307692307693
aF0.5192307692307693
aF0.5192307692307693
aF0.5192307692307693
aF0.5192307692307693
aF0.5
aF0.5192307692307693
aF0.5
asg7
(lp2245
F0.5192307692307693
aF0.5192307692307693
aF0.5192307692307693
aF0.5192307692307693
aF0.5192307692307693
aF0.5192307692307693
aF0.5192307692307693
aF0.5192307692307693
aF0.5192307692307693
aF0.5192307692307693
aF0.5098039215686274
aF0.5192307692307693
aF0.5192307692307693
aF0.5192307692307693
aF0.5192307692307693
aF0.5192307692307693
aF0.5192307692307693
aF0.5192307692307693
aF0.5192307692307693
aF0.5192307692307693
aF0.5192307692307693
aF0.5192307692307693
aF0.5098039215686274
aF0.5192307692307693
aF0.5098039215686274
asg9
(lp2246
g11
(g15
S'\x00\x00\x00\x00\x00\x00\xe0?'
p2247
tp2248
Rp2249
ag11
(g15
S'\x00\x00\x00\x00\x00\x00\xe0?'
p2250
tp2251
Rp2252
ag11
(g15
S'\x00\x00\x00\x00\x00\x00\xe0?'
p2253
tp2254
Rp2255
ag11
(g15
S'\x00\x00\x00\x00\x00\x00\xe0?'
p2256
tp2257
Rp2258
ag11
(g15
S'\x00\x00\x00\x00\x00\x00\xe0?'
p2259
tp2260
Rp2261
ag11
(g15
S'\x00\x00\x00\x00\x00\x00\xe0?'
p2262
tp2263
Rp2264
ag11
(g15
S'\x00\x00\x00\x00\x00\x00\xe0?'
p2265
tp2266
Rp2267
ag11
(g15
S'\x00\x00\x00\x00\x00\x00\xe0?'
p2268
tp2269
Rp2270
ag11
(g15
S'\x00\x00\x00\x00\x00\x00\xe0?'
p2271
tp2272
Rp2273
ag11
(g15
S'\x00\x00\x00\x00\x00\x00\xe0?'
p2274
tp2275
Rp2276
ag11
(g15
S'\t\xed%\xb4\x97\xd0\xde?'
p2277
tp2278
Rp2279
ag11
(g15
S'\x00\x00\x00\x00\x00\x00\xe0?'
p2280
tp2281
Rp2282
ag11
(g15
S'\x00\x00\x00\x00\x00\x00\xe0?'
p2283
tp2284
Rp2285
ag11
(g15
S'\x00\x00\x00\x00\x00\x00\xe0?'
p2286
tp2287
Rp2288
ag11
(g15
S'\x00\x00\x00\x00\x00\x00\xe0?'
p2289
tp2290
Rp2291
ag11
(g15
S'\x00\x00\x00\x00\x00\x00\xe0?'
p2292
tp2293
Rp2294
ag11
(g15
S'\x00\x00\x00\x00\x00\x00\xe0?'
p2295
tp2296
Rp2297
ag11
(g15
S'\x00\x00\x00\x00\x00\x00\xe0?'
p2298
tp2299
Rp2300
ag11
(g15
S'\x00\x00\x00\x00\x00\x00\xe0?'
p2301
tp2302
Rp2303
ag11
(g15
S'\x00\x00\x00\x00\x00\x00\xe0?'
p2304
tp2305
Rp2306
ag11
(g15
S'\x00\x00\x00\x00\x00\x00\xe0?'
p2307
tp2308
Rp2309
ag11
(g15
S'\x00\x00\x00\x00\x00\x00\xe0?'
p2310
tp2311
Rp2312
ag11
(g15
S'\t\xed%\xb4\x97\xd0\xde?'
p2313
tp2314
Rp2315
ag11
(g15
S'\x00\x00\x00\x00\x00\x00\xe0?'
p2316
tp2317
Rp2318
ag11
(g15
S'\t\xed%\xb4\x97\xd0\xde?'
p2319
tp2320
Rp2321
asg93
(lp2322
F0.6835443037974684
aF0.6835443037974684
aF0.6835443037974684
aF0.6835443037974684
aF0.6835443037974684
aF0.6835443037974684
aF0.6835443037974684
aF0.6835443037974684
aF0.6835443037974684
aF0.6835443037974684
aF0.6666666666666666
aF0.6835443037974684
aF0.6835443037974684
aF0.6835443037974684
aF0.6835443037974684
aF0.6835443037974684
aF0.6835443037974684
aF0.6835443037974684
aF0.6835443037974684
aF0.6835443037974684
aF0.6835443037974684
aF0.6835443037974684
aF0.6666666666666666
aF0.6835443037974684
aF0.6666666666666666
asg95
(lp2323
F1.0
aF1.0
aF1.0
aF1.0
aF1.0
aF1.0
aF1.0
aF1.0
aF1.0
aF1.0
aF1.0
aF1.0
aF1.0
aF1.0
aF1.0
aF1.0
aF1.0
aF1.0
aF1.0
aF1.0
aF1.0
aF1.0
aF1.0
aF1.0
aF1.0
asg97
(lp2324
F1.0
aF1.0
aF1.0
aF1.0
aF1.0
aF1.0
aF1.0
aF1.0
aF1.0
aF1.0
aF0.9629629629629629
aF1.0
aF1.0
aF1.0
aF1.0
aF1.0
aF1.0
aF1.0
aF1.0
aF1.0
aF1.0
aF1.0
aF0.9629629629629629
aF1.0
aF0.9629629629629629
asssS'Google'
p2325
(dp2326
g3
(dp2327
g5
(lp2328
F0.5454545454545454
aF0.5454545454545454
aF0.5454545454545454
aF0.5454545454545454
aF0.5454545454545454
aF0.5454545454545454
aF0.5454545454545454
aF0.5454545454545454
aF0.5454545454545454
aF0.5454545454545454
aF0.5454545454545454
aF0.5454545454545454
aF0.5454545454545454
aF0.5454545454545454
aF0.5454545454545454
aF0.5454545454545454
aF0.5454545454545454
aF0.5454545454545454
aF0.5454545454545454
aF0.5454545454545454
aF0.5454545454545454
aF0.5454545454545454
aF0.5454545454545454
aF0.5454545454545454
aF0.5454545454545454
asg7
(lp2329
F0.5454545454545454
aF0.5454545454545454
aF0.5454545454545454
aF0.5454545454545454
aF0.5454545454545454
aF0.5454545454545454
aF0.5454545454545454
aF0.5454545454545454
aF0.5454545454545454
aF0.5454545454545454
aF0.5454545454545454
aF0.5454545454545454
aF0.5454545454545454
aF0.5454545454545454
aF0.5454545454545454
aF0.5454545454545454
aF0.5454545454545454
aF0.5454545454545454
aF0.5454545454545454
aF0.5454545454545454
aF0.5454545454545454
aF0.5454545454545454
aF0.5454545454545454
aF0.5454545454545454
aF0.5454545454545454
asg9
(lp2330
g11
(g15
S'\x00\x00\x00\x00\x00\x00\xe0?'
p2331
tp2332
Rp2333
ag11
(g15
S'\x00\x00\x00\x00\x00\x00\xe0?'
p2334
tp2335
Rp2336
ag11
(g15
S'\x00\x00\x00\x00\x00\x00\xe0?'
p2337
tp2338
Rp2339
ag11
(g15
S'\x00\x00\x00\x00\x00\x00\xe0?'
p2340
tp2341
Rp2342
ag11
(g15
S'\x00\x00\x00\x00\x00\x00\xe0?'
p2343
tp2344
Rp2345
ag11
(g15
S'\x00\x00\x00\x00\x00\x00\xe0?'
p2346
tp2347
Rp2348
ag11
(g15
S'\x00\x00\x00\x00\x00\x00\xe0?'
p2349
tp2350
Rp2351
ag11
(g15
S'\x00\x00\x00\x00\x00\x00\xe0?'
p2352
tp2353
Rp2354
ag11
(g15
S'\x00\x00\x00\x00\x00\x00\xe0?'
p2355
tp2356
Rp2357
ag11
(g15
S'\x00\x00\x00\x00\x00\x00\xe0?'
p2358
tp2359
Rp2360
ag11
(g15
S'\x00\x00\x00\x00\x00\x00\xe0?'
p2361
tp2362
Rp2363
ag11
(g15
S'\x00\x00\x00\x00\x00\x00\xe0?'
p2364
tp2365
Rp2366
ag11
(g15
S'\x00\x00\x00\x00\x00\x00\xe0?'
p2367
tp2368
Rp2369
ag11
(g15
S'\x00\x00\x00\x00\x00\x00\xe0?'
p2370
tp2371
Rp2372
ag11
(g15
S'\x00\x00\x00\x00\x00\x00\xe0?'
p2373
tp2374
Rp2375
ag11
(g15
S'\x00\x00\x00\x00\x00\x00\xe0?'
p2376
tp2377
Rp2378
ag11
(g15
S'\x00\x00\x00\x00\x00\x00\xe0?'
p2379
tp2380
Rp2381
ag11
(g15
S'\x00\x00\x00\x00\x00\x00\xe0?'
p2382
tp2383
Rp2384
ag11
(g15
S'\x00\x00\x00\x00\x00\x00\xe0?'
p2385
tp2386
Rp2387
ag11
(g15
S'\x00\x00\x00\x00\x00\x00\xe0?'
p2388
tp2389
Rp2390
ag11
(g15
S'\x00\x00\x00\x00\x00\x00\xe0?'
p2391
tp2392
Rp2393
ag11
(g15
S'\x00\x00\x00\x00\x00\x00\xe0?'
p2394
tp2395
Rp2396
ag11
(g15
S'\x00\x00\x00\x00\x00\x00\xe0?'
p2397
tp2398
Rp2399
ag11
(g15
S'\x00\x00\x00\x00\x00\x00\xe0?'
p2400
tp2401
Rp2402
ag11
(g15
S'\x00\x00\x00\x00\x00\x00\xe0?'
p2403
tp2404
Rp2405
asg93
(lp2406
F0.7058823529411764
aF0.7058823529411764
aF0.7058823529411764
aF0.7058823529411764
aF0.7058823529411764
aF0.7058823529411764
aF0.7058823529411764
aF0.7058823529411764
aF0.7058823529411764
aF0.7058823529411764
aF0.7058823529411764
aF0.7058823529411764
aF0.7058823529411764
aF0.7058823529411764
aF0.7058823529411764
aF0.7058823529411764
aF0.7058823529411764
aF0.7058823529411764
aF0.7058823529411764
aF0.7058823529411764
aF0.7058823529411764
aF0.7058823529411764
aF0.7058823529411764
aF0.7058823529411764
aF0.7058823529411764
asg95
(lp2407
F1.0
aF1.0
aF1.0
aF1.0
aF1.0
aF1.0
aF1.0
aF1.0
aF1.0
aF1.0
aF1.0
aF1.0
aF1.0
aF1.0
aF1.0
aF1.0
aF1.0
aF1.0
aF1.0
aF1.0
aF1.0
aF1.0
aF1.0
aF1.0
aF1.0
asg97
(lp2408
F1.0
aF1.0
aF1.0
aF1.0
aF1.0
aF1.0
aF1.0
aF1.0
aF1.0
aF1.0
aF1.0
aF1.0
aF1.0
aF1.0
aF1.0
aF1.0
aF1.0
aF1.0
aF1.0
aF1.0
aF1.0
aF1.0
aF1.0
aF1.0
aF1.0
assg99
(dp2409
g5
(lp2410
F0.5454545454545454
aF0.5454545454545454
aF0.5454545454545454
aF0.5454545454545454
aF0.5454545454545454
aF0.5454545454545454
aF0.5454545454545454
aF0.5454545454545454
aF0.5454545454545454
aF0.5454545454545454
aF0.5454545454545454
aF0.5454545454545454
aF0.5454545454545454
aF0.5454545454545454
aF0.5454545454545454
aF0.5454545454545454
aF0.5454545454545454
aF0.5454545454545454
aF0.5454545454545454
aF0.5454545454545454
aF0.5454545454545454
aF0.5454545454545454
aF0.5454545454545454
aF0.5454545454545454
aF0.5454545454545454
asg7
(lp2411
F0.5454545454545454
aF0.5454545454545454
aF0.5454545454545454
aF0.5454545454545454
aF0.5454545454545454
aF0.5454545454545454
aF0.5454545454545454
aF0.5454545454545454
aF0.5454545454545454
aF0.5454545454545454
aF0.5454545454545454
aF0.5454545454545454
aF0.5454545454545454
aF0.5454545454545454
aF0.5454545454545454
aF0.5454545454545454
aF0.5454545454545454
aF0.5454545454545454
aF0.5454545454545454
aF0.5454545454545454
aF0.5454545454545454
aF0.5454545454545454
aF0.5454545454545454
aF0.5454545454545454
aF0.5454545454545454
asg9
(lp2412
g11
(g15
S'\x00\x00\x00\x00\x00\x00\xe0?'
p2413
tp2414
Rp2415
ag11
(g15
S'\x00\x00\x00\x00\x00\x00\xe0?'
p2416
tp2417
Rp2418
ag11
(g15
S'\x00\x00\x00\x00\x00\x00\xe0?'
p2419
tp2420
Rp2421
ag11
(g15
S'\x00\x00\x00\x00\x00\x00\xe0?'
p2422
tp2423
Rp2424
ag11
(g15
S'\x00\x00\x00\x00\x00\x00\xe0?'
p2425
tp2426
Rp2427
ag11
(g15
S'\x00\x00\x00\x00\x00\x00\xe0?'
p2428
tp2429
Rp2430
ag11
(g15
S'\x00\x00\x00\x00\x00\x00\xe0?'
p2431
tp2432
Rp2433
ag11
(g15
S'\x00\x00\x00\x00\x00\x00\xe0?'
p2434
tp2435
Rp2436
ag11
(g15
S'\x00\x00\x00\x00\x00\x00\xe0?'
p2437
tp2438
Rp2439
ag11
(g15
S'\x00\x00\x00\x00\x00\x00\xe0?'
p2440
tp2441
Rp2442
ag11
(g15
S'\x00\x00\x00\x00\x00\x00\xe0?'
p2443
tp2444
Rp2445
ag11
(g15
S'\x00\x00\x00\x00\x00\x00\xe0?'
p2446
tp2447
Rp2448
ag11
(g15
S'\x00\x00\x00\x00\x00\x00\xe0?'
p2449
tp2450
Rp2451
ag11
(g15
S'\x00\x00\x00\x00\x00\x00\xe0?'
p2452
tp2453
Rp2454
ag11
(g15
S'\x00\x00\x00\x00\x00\x00\xe0?'
p2455
tp2456
Rp2457
ag11
(g15
S'\x00\x00\x00\x00\x00\x00\xe0?'
p2458
tp2459
Rp2460
ag11
(g15
S'\x00\x00\x00\x00\x00\x00\xe0?'
p2461
tp2462
Rp2463
ag11
(g15
S'\x00\x00\x00\x00\x00\x00\xe0?'
p2464
tp2465
Rp2466
ag11
(g15
S'\x00\x00\x00\x00\x00\x00\xe0?'
p2467
tp2468
Rp2469
ag11
(g15
S'\x00\x00\x00\x00\x00\x00\xe0?'
p2470
tp2471
Rp2472
ag11
(g15
S'\x00\x00\x00\x00\x00\x00\xe0?'
p2473
tp2474
Rp2475
ag11
(g15
S'\x00\x00\x00\x00\x00\x00\xe0?'
p2476
tp2477
Rp2478
ag11
(g15
S'\x00\x00\x00\x00\x00\x00\xe0?'
p2479
tp2480
Rp2481
ag11
(g15
S'\x00\x00\x00\x00\x00\x00\xe0?'
p2482
tp2483
Rp2484
ag11
(g15
S'\x00\x00\x00\x00\x00\x00\xe0?'
p2485
tp2486
Rp2487
asg93
(lp2488
F0.7058823529411764
aF0.7058823529411764
aF0.7058823529411764
aF0.7058823529411764
aF0.7058823529411764
aF0.7058823529411764
aF0.7058823529411764
aF0.7058823529411764
aF0.7058823529411764
aF0.7058823529411764
aF0.7058823529411764
aF0.7058823529411764
aF0.7058823529411764
aF0.7058823529411764
aF0.7058823529411764
aF0.7058823529411764
aF0.7058823529411764
aF0.7058823529411764
aF0.7058823529411764
aF0.7058823529411764
aF0.7058823529411764
aF0.7058823529411764
aF0.7058823529411764
aF0.7058823529411764
aF0.7058823529411764
asg95
(lp2489
F1.0
aF1.0
aF1.0
aF1.0
aF1.0
aF1.0
aF1.0
aF1.0
aF1.0
aF1.0
aF1.0
aF1.0
aF1.0
aF1.0
aF1.0
aF1.0
aF1.0
aF1.0
aF1.0
aF1.0
aF1.0
aF1.0
aF1.0
aF1.0
aF1.0
asg97
(lp2490
F1.0
aF1.0
aF1.0
aF1.0
aF1.0
aF1.0
aF1.0
aF1.0
aF1.0
aF1.0
aF1.0
aF1.0
aF1.0
aF1.0
aF1.0
aF1.0
aF1.0
aF1.0
aF1.0
aF1.0
aF1.0
aF1.0
aF1.0
aF1.0
aF1.0
assg182
(dp2491
g5
(lp2492
F0.5454545454545454
aF0.5454545454545454
aF0.5454545454545454
aF0.5454545454545454
aF0.5454545454545454
aF0.5454545454545454
aF0.5454545454545454
aF0.5454545454545454
aF0.5454545454545454
aF0.5454545454545454
aF0.5454545454545454
aF0.5454545454545454
aF0.5454545454545454
aF0.5454545454545454
aF0.5454545454545454
aF0.5454545454545454
aF0.5454545454545454
aF0.5454545454545454
aF0.5454545454545454
aF0.5454545454545454
aF0.5454545454545454
aF0.5454545454545454
aF0.5454545454545454
aF0.5454545454545454
aF0.5454545454545454
asg7
(lp2493
F0.5454545454545454
aF0.5454545454545454
aF0.5454545454545454
aF0.5454545454545454
aF0.5454545454545454
aF0.5454545454545454
aF0.5454545454545454
aF0.5454545454545454
aF0.5454545454545454
aF0.5454545454545454
aF0.5454545454545454
aF0.5454545454545454
aF0.5454545454545454
aF0.5454545454545454
aF0.5454545454545454
aF0.5454545454545454
aF0.5454545454545454
aF0.5454545454545454
aF0.5454545454545454
aF0.5454545454545454
aF0.5454545454545454
aF0.5454545454545454
aF0.5454545454545454
aF0.5454545454545454
aF0.5454545454545454
asg9
(lp2494
g11
(g15
S'\x00\x00\x00\x00\x00\x00\xe0?'
p2495
tp2496
Rp2497
ag11
(g15
S'\x00\x00\x00\x00\x00\x00\xe0?'
p2498
tp2499
Rp2500
ag11
(g15
S'\x00\x00\x00\x00\x00\x00\xe0?'
p2501
tp2502
Rp2503
ag11
(g15
S'\x00\x00\x00\x00\x00\x00\xe0?'
p2504
tp2505
Rp2506
ag11
(g15
S'\x00\x00\x00\x00\x00\x00\xe0?'
p2507
tp2508
Rp2509
ag11
(g15
S'\x00\x00\x00\x00\x00\x00\xe0?'
p2510
tp2511
Rp2512
ag11
(g15
S'\x00\x00\x00\x00\x00\x00\xe0?'
p2513
tp2514
Rp2515
ag11
(g15
S'\x00\x00\x00\x00\x00\x00\xe0?'
p2516
tp2517
Rp2518
ag11
(g15
S'\x00\x00\x00\x00\x00\x00\xe0?'
p2519
tp2520
Rp2521
ag11
(g15
S'\x00\x00\x00\x00\x00\x00\xe0?'
p2522
tp2523
Rp2524
ag11
(g15
S'\x00\x00\x00\x00\x00\x00\xe0?'
p2525
tp2526
Rp2527
ag11
(g15
S'\x00\x00\x00\x00\x00\x00\xe0?'
p2528
tp2529
Rp2530
ag11
(g15
S'\x00\x00\x00\x00\x00\x00\xe0?'
p2531
tp2532
Rp2533
ag11
(g15
S'\x00\x00\x00\x00\x00\x00\xe0?'
p2534
tp2535
Rp2536
ag11
(g15
S'\x00\x00\x00\x00\x00\x00\xe0?'
p2537
tp2538
Rp2539
ag11
(g15
S'\x00\x00\x00\x00\x00\x00\xe0?'
p2540
tp2541
Rp2542
ag11
(g15
S'\x00\x00\x00\x00\x00\x00\xe0?'
p2543
tp2544
Rp2545
ag11
(g15
S'\x00\x00\x00\x00\x00\x00\xe0?'
p2546
tp2547
Rp2548
ag11
(g15
S'\x00\x00\x00\x00\x00\x00\xe0?'
p2549
tp2550
Rp2551
ag11
(g15
S'\x00\x00\x00\x00\x00\x00\xe0?'
p2552
tp2553
Rp2554
ag11
(g15
S'\x00\x00\x00\x00\x00\x00\xe0?'
p2555
tp2556
Rp2557
ag11
(g15
S'\x00\x00\x00\x00\x00\x00\xe0?'
p2558
tp2559
Rp2560
ag11
(g15
S'\x00\x00\x00\x00\x00\x00\xe0?'
p2561
tp2562
Rp2563
ag11
(g15
S'\x00\x00\x00\x00\x00\x00\xe0?'
p2564
tp2565
Rp2566
ag11
(g15
S'\x00\x00\x00\x00\x00\x00\xe0?'
p2567
tp2568
Rp2569
asg93
(lp2570
F0.7058823529411764
aF0.7058823529411764
aF0.7058823529411764
aF0.7058823529411764
aF0.7058823529411764
aF0.7058823529411764
aF0.7058823529411764
aF0.7058823529411764
aF0.7058823529411764
aF0.7058823529411764
aF0.7058823529411764
aF0.7058823529411764
aF0.7058823529411764
aF0.7058823529411764
aF0.7058823529411764
aF0.7058823529411764
aF0.7058823529411764
aF0.7058823529411764
aF0.7058823529411764
aF0.7058823529411764
aF0.7058823529411764
aF0.7058823529411764
aF0.7058823529411764
aF0.7058823529411764
aF0.7058823529411764
asg95
(lp2571
F1.0
aF1.0
aF1.0
aF1.0
aF1.0
aF1.0
aF1.0
aF1.0
aF1.0
aF1.0
aF1.0
aF1.0
aF1.0
aF1.0
aF1.0
aF1.0
aF1.0
aF1.0
aF1.0
aF1.0
aF1.0
aF1.0
aF1.0
aF1.0
aF1.0
asg97
(lp2572
F1.0
aF1.0
aF1.0
aF1.0
aF1.0
aF1.0
aF1.0
aF1.0
aF1.0
aF1.0
aF1.0
aF1.0
aF1.0
aF1.0
aF1.0
aF1.0
aF1.0
aF1.0
aF1.0
aF1.0
aF1.0
aF1.0
aF1.0
aF1.0
aF1.0
assg265
(dp2573
g5
(lp2574
F0.5454545454545454
aF0.5454545454545454
aF0.5454545454545454
aF0.5454545454545454
aF0.5454545454545454
aF0.5454545454545454
aF0.5454545454545454
aF0.5454545454545454
aF0.5454545454545454
aF0.5454545454545454
aF0.5454545454545454
aF0.5454545454545454
aF0.5454545454545454
aF0.5454545454545454
aF0.5454545454545454
aF0.5454545454545454
aF0.5454545454545454
aF0.5454545454545454
aF0.5454545454545454
aF0.5454545454545454
aF0.5454545454545454
aF0.5454545454545454
aF0.5454545454545454
aF0.5454545454545454
aF0.5454545454545454
asg7
(lp2575
F0.5454545454545454
aF0.5454545454545454
aF0.5454545454545454
aF0.5454545454545454
aF0.5454545454545454
aF0.5454545454545454
aF0.5454545454545454
aF0.5454545454545454
aF0.5454545454545454
aF0.5454545454545454
aF0.5454545454545454
aF0.5454545454545454
aF0.5454545454545454
aF0.5454545454545454
aF0.5454545454545454
aF0.5454545454545454
aF0.5454545454545454
aF0.5454545454545454
aF0.5454545454545454
aF0.5454545454545454
aF0.5454545454545454
aF0.5454545454545454
aF0.5454545454545454
aF0.5454545454545454
aF0.5454545454545454
asg9
(lp2576
g11
(g15
S'\x00\x00\x00\x00\x00\x00\xe0?'
p2577
tp2578
Rp2579
ag11
(g15
S'\x00\x00\x00\x00\x00\x00\xe0?'
p2580
tp2581
Rp2582
ag11
(g15
S'\x00\x00\x00\x00\x00\x00\xe0?'
p2583
tp2584
Rp2585
ag11
(g15
S'\x00\x00\x00\x00\x00\x00\xe0?'
p2586
tp2587
Rp2588
ag11
(g15
S'\x00\x00\x00\x00\x00\x00\xe0?'
p2589
tp2590
Rp2591
ag11
(g15
S'\x00\x00\x00\x00\x00\x00\xe0?'
p2592
tp2593
Rp2594
ag11
(g15
S'\x00\x00\x00\x00\x00\x00\xe0?'
p2595
tp2596
Rp2597
ag11
(g15
S'\x00\x00\x00\x00\x00\x00\xe0?'
p2598
tp2599
Rp2600
ag11
(g15
S'\x00\x00\x00\x00\x00\x00\xe0?'
p2601
tp2602
Rp2603
ag11
(g15
S'\x00\x00\x00\x00\x00\x00\xe0?'
p2604
tp2605
Rp2606
ag11
(g15
S'\x00\x00\x00\x00\x00\x00\xe0?'
p2607
tp2608
Rp2609
ag11
(g15
S'\x00\x00\x00\x00\x00\x00\xe0?'
p2610
tp2611
Rp2612
ag11
(g15
S'\x00\x00\x00\x00\x00\x00\xe0?'
p2613
tp2614
Rp2615
ag11
(g15
S'\x00\x00\x00\x00\x00\x00\xe0?'
p2616
tp2617
Rp2618
ag11
(g15
S'\x00\x00\x00\x00\x00\x00\xe0?'
p2619
tp2620
Rp2621
ag11
(g15
S'\x00\x00\x00\x00\x00\x00\xe0?'
p2622
tp2623
Rp2624
ag11
(g15
S'\x00\x00\x00\x00\x00\x00\xe0?'
p2625
tp2626
Rp2627
ag11
(g15
S'\x00\x00\x00\x00\x00\x00\xe0?'
p2628
tp2629
Rp2630
ag11
(g15
S'\x00\x00\x00\x00\x00\x00\xe0?'
p2631
tp2632
Rp2633
ag11
(g15
S'\x00\x00\x00\x00\x00\x00\xe0?'
p2634
tp2635
Rp2636
ag11
(g15
S'\x00\x00\x00\x00\x00\x00\xe0?'
p2637
tp2638
Rp2639
ag11
(g15
S'\x00\x00\x00\x00\x00\x00\xe0?'
p2640
tp2641
Rp2642
ag11
(g15
S'\x00\x00\x00\x00\x00\x00\xe0?'
p2643
tp2644
Rp2645
ag11
(g15
S'\x00\x00\x00\x00\x00\x00\xe0?'
p2646
tp2647
Rp2648
ag11
(g15
S'\x00\x00\x00\x00\x00\x00\xe0?'
p2649
tp2650
Rp2651
asg93
(lp2652
F0.7058823529411764
aF0.7058823529411764
aF0.7058823529411764
aF0.7058823529411764
aF0.7058823529411764
aF0.7058823529411764
aF0.7058823529411764
aF0.7058823529411764
aF0.7058823529411764
aF0.7058823529411764
aF0.7058823529411764
aF0.7058823529411764
aF0.7058823529411764
aF0.7058823529411764
aF0.7058823529411764
aF0.7058823529411764
aF0.7058823529411764
aF0.7058823529411764
aF0.7058823529411764
aF0.7058823529411764
aF0.7058823529411764
aF0.7058823529411764
aF0.7058823529411764
aF0.7058823529411764
aF0.7058823529411764
asg95
(lp2653
F1.0
aF1.0
aF1.0
aF1.0
aF1.0
aF1.0
aF1.0
aF1.0
aF1.0
aF1.0
aF1.0
aF1.0
aF1.0
aF1.0
aF1.0
aF1.0
aF1.0
aF1.0
aF1.0
aF1.0
aF1.0
aF1.0
aF1.0
aF1.0
aF1.0
asg97
(lp2654
F1.0
aF1.0
aF1.0
aF1.0
aF1.0
aF1.0
aF1.0
aF1.0
aF1.0
aF1.0
aF1.0
aF1.0
aF1.0
aF1.0
aF1.0
aF1.0
aF1.0
aF1.0
aF1.0
aF1.0
aF1.0
aF1.0
aF1.0
aF1.0
aF1.0
assg348
(dp2655
g5
(lp2656
F0.494949494949495
aF0.494949494949495
aF0.494949494949495
aF0.494949494949495
aF0.494949494949495
aF0.494949494949495
aF0.494949494949495
aF0.494949494949495
aF0.494949494949495
aF0.494949494949495
aF0.494949494949495
aF0.494949494949495
aF0.494949494949495
aF0.494949494949495
aF0.494949494949495
aF0.494949494949495
aF0.494949494949495
aF0.494949494949495
aF0.494949494949495
aF0.494949494949495
aF0.494949494949495
aF0.494949494949495
aF0.494949494949495
aF0.494949494949495
aF0.494949494949495
asg7
(lp2657
F1.0
aF1.0
aF1.0
aF1.0
aF1.0
aF1.0
aF1.0
aF1.0
aF1.0
aF1.0
aF1.0
aF1.0
aF1.0
aF1.0
aF1.0
aF1.0
aF1.0
aF1.0
aF1.0
aF1.0
aF1.0
aF1.0
aF1.0
aF1.0
aF1.0
asg9
(lp2658
g11
(g15
S'\xf6\x12\xdaKh/\xe1?'
p2659
tp2660
Rp2661
ag11
(g15
S'\xf6\x12\xdaKh/\xe1?'
p2662
tp2663
Rp2664
ag11
(g15
S'\xf6\x12\xdaKh/\xe1?'
p2665
tp2666
Rp2667
ag11
(g15
S'\xf6\x12\xdaKh/\xe1?'
p2668
tp2669
Rp2670
ag11
(g15
S'\xf6\x12\xdaKh/\xe1?'
p2671
tp2672
Rp2673
ag11
(g15
S'\xf6\x12\xdaKh/\xe1?'
p2674
tp2675
Rp2676
ag11
(g15
S'\xf6\x12\xdaKh/\xe1?'
p2677
tp2678
Rp2679
ag11
(g15
S'\xf6\x12\xdaKh/\xe1?'
p2680
tp2681
Rp2682
ag11
(g15
S'\xf6\x12\xdaKh/\xe1?'
p2683
tp2684
Rp2685
ag11
(g15
S'\xf6\x12\xdaKh/\xe1?'
p2686
tp2687
Rp2688
ag11
(g15
S'\xf6\x12\xdaKh/\xe1?'
p2689
tp2690
Rp2691
ag11
(g15
S'\xf6\x12\xdaKh/\xe1?'
p2692
tp2693
Rp2694
ag11
(g15
S'\xf6\x12\xdaKh/\xe1?'
p2695
tp2696
Rp2697
ag11
(g15
S'\xf6\x12\xdaKh/\xe1?'
p2698
tp2699
Rp2700
ag11
(g15
S'\xf6\x12\xdaKh/\xe1?'
p2701
tp2702
Rp2703
ag11
(g15
S'\xf6\x12\xdaKh/\xe1?'
p2704
tp2705
Rp2706
ag11
(g15
S'\xf6\x12\xdaKh/\xe1?'
p2707
tp2708
Rp2709
ag11
(g15
S'\xf6\x12\xdaKh/\xe1?'
p2710
tp2711
Rp2712
ag11
(g15
S'\xf6\x12\xdaKh/\xe1?'
p2713
tp2714
Rp2715
ag11
(g15
S'\xf6\x12\xdaKh/\xe1?'
p2716
tp2717
Rp2718
ag11
(g15
S'\xf6\x12\xdaKh/\xe1?'
p2719
tp2720
Rp2721
ag11
(g15
S'\xf6\x12\xdaKh/\xe1?'
p2722
tp2723
Rp2724
ag11
(g15
S'\xf6\x12\xdaKh/\xe1?'
p2725
tp2726
Rp2727
ag11
(g15
S'\xf6\x12\xdaKh/\xe1?'
p2728
tp2729
Rp2730
ag11
(g15
S'\xf6\x12\xdaKh/\xe1?'
p2731
tp2732
Rp2733
asg93
(lp2734
F0.13793103448275862
aF0.13793103448275862
aF0.13793103448275862
aF0.13793103448275862
aF0.13793103448275862
aF0.13793103448275862
aF0.13793103448275862
aF0.13793103448275862
aF0.13793103448275862
aF0.13793103448275862
aF0.13793103448275862
aF0.13793103448275862
aF0.13793103448275862
aF0.13793103448275862
aF0.13793103448275862
aF0.13793103448275862
aF0.13793103448275862
aF0.13793103448275862
aF0.13793103448275862
aF0.13793103448275862
aF0.13793103448275862
aF0.13793103448275862
aF0.13793103448275862
aF0.13793103448275862
aF0.13793103448275862
asg95
(lp2735
F0.0
aF0.0
aF0.0
aF0.0
aF0.0
aF0.0
aF0.0
aF0.0
aF0.0
aF0.0
aF0.0
aF0.0
aF0.0
aF0.0
aF0.0
aF0.0
aF0.0
aF0.0
aF0.0
aF0.0
aF0.0
aF0.0
aF0.0
aF0.0
aF0.0
asg97
(lp2736
F0.07407407407407407
aF0.07407407407407407
aF0.07407407407407407
aF0.07407407407407407
aF0.07407407407407407
aF0.07407407407407407
aF0.07407407407407407
aF0.07407407407407407
aF0.07407407407407407
aF0.07407407407407407
aF0.07407407407407407
aF0.07407407407407407
aF0.07407407407407407
aF0.07407407407407407
aF0.07407407407407407
aF0.07407407407407407
aF0.07407407407407407
aF0.07407407407407407
aF0.07407407407407407
aF0.07407407407407407
aF0.07407407407407407
aF0.07407407407407407
aF0.07407407407407407
aF0.07407407407407407
aF0.07407407407407407
assg431
(dp2737
g5
(lp2738
F0.5454545454545454
aF0.5454545454545454
aF0.5454545454545454
aF0.5454545454545454
aF0.5454545454545454
aF0.5454545454545454
aF0.5454545454545454
aF0.5454545454545454
aF0.5454545454545454
aF0.5454545454545454
aF0.5454545454545454
aF0.5454545454545454
aF0.5454545454545454
aF0.5454545454545454
aF0.5454545454545454
aF0.5454545454545454
aF0.5454545454545454
aF0.5454545454545454
aF0.5454545454545454
aF0.5454545454545454
aF0.5454545454545454
aF0.5454545454545454
aF0.5454545454545454
aF0.5454545454545454
aF0.5454545454545454
asg7
(lp2739
F0.5454545454545454
aF0.5454545454545454
aF0.5454545454545454
aF0.5454545454545454
aF0.5454545454545454
aF0.5454545454545454
aF0.5454545454545454
aF0.5454545454545454
aF0.5454545454545454
aF0.5454545454545454
aF0.5454545454545454
aF0.5454545454545454
aF0.5454545454545454
aF0.5454545454545454
aF0.5454545454545454
aF0.5454545454545454
aF0.5454545454545454
aF0.5454545454545454
aF0.5454545454545454
aF0.5454545454545454
aF0.5454545454545454
aF0.5454545454545454
aF0.5454545454545454
aF0.5454545454545454
aF0.5454545454545454
asg9
(lp2740
g11
(g15
S'\x00\x00\x00\x00\x00\x00\xe0?'
p2741
tp2742
Rp2743
ag11
(g15
S'\x00\x00\x00\x00\x00\x00\xe0?'
p2744
tp2745
Rp2746
ag11
(g15
S'\x00\x00\x00\x00\x00\x00\xe0?'
p2747
tp2748
Rp2749
ag11
(g15
S'\x00\x00\x00\x00\x00\x00\xe0?'
p2750
tp2751
Rp2752
ag11
(g15
S'\x00\x00\x00\x00\x00\x00\xe0?'
p2753
tp2754
Rp2755
ag11
(g15
S'\x00\x00\x00\x00\x00\x00\xe0?'
p2756
tp2757
Rp2758
ag11
(g15
S'\x00\x00\x00\x00\x00\x00\xe0?'
p2759
tp2760
Rp2761
ag11
(g15
S'\x00\x00\x00\x00\x00\x00\xe0?'
p2762
tp2763
Rp2764
ag11
(g15
S'\x00\x00\x00\x00\x00\x00\xe0?'
p2765
tp2766
Rp2767
ag11
(g15
S'\x00\x00\x00\x00\x00\x00\xe0?'
p2768
tp2769
Rp2770
ag11
(g15
S'\x00\x00\x00\x00\x00\x00\xe0?'
p2771
tp2772
Rp2773
ag11
(g15
S'\x00\x00\x00\x00\x00\x00\xe0?'
p2774
tp2775
Rp2776
ag11
(g15
S'\x00\x00\x00\x00\x00\x00\xe0?'
p2777
tp2778
Rp2779
ag11
(g15
S'\x00\x00\x00\x00\x00\x00\xe0?'
p2780
tp2781
Rp2782
ag11
(g15
S'\x00\x00\x00\x00\x00\x00\xe0?'
p2783
tp2784
Rp2785
ag11
(g15
S'\x00\x00\x00\x00\x00\x00\xe0?'
p2786
tp2787
Rp2788
ag11
(g15
S'\x00\x00\x00\x00\x00\x00\xe0?'
p2789
tp2790
Rp2791
ag11
(g15
S'\x00\x00\x00\x00\x00\x00\xe0?'
p2792
tp2793
Rp2794
ag11
(g15
S'\x00\x00\x00\x00\x00\x00\xe0?'
p2795
tp2796
Rp2797
ag11
(g15
S'\x00\x00\x00\x00\x00\x00\xe0?'
p2798
tp2799
Rp2800
ag11
(g15
S'\x00\x00\x00\x00\x00\x00\xe0?'
p2801
tp2802
Rp2803
ag11
(g15
S'\x00\x00\x00\x00\x00\x00\xe0?'
p2804
tp2805
Rp2806
ag11
(g15
S'\x00\x00\x00\x00\x00\x00\xe0?'
p2807
tp2808
Rp2809
ag11
(g15
S'\x00\x00\x00\x00\x00\x00\xe0?'
p2810
tp2811
Rp2812
ag11
(g15
S'\x00\x00\x00\x00\x00\x00\xe0?'
p2813
tp2814
Rp2815
asg93
(lp2816
F0.7058823529411764
aF0.7058823529411764
aF0.7058823529411764
aF0.7058823529411764
aF0.7058823529411764
aF0.7058823529411764
aF0.7058823529411764
aF0.7058823529411764
aF0.7058823529411764
aF0.7058823529411764
aF0.7058823529411764
aF0.7058823529411764
aF0.7058823529411764
aF0.7058823529411764
aF0.7058823529411764
aF0.7058823529411764
aF0.7058823529411764
aF0.7058823529411764
aF0.7058823529411764
aF0.7058823529411764
aF0.7058823529411764
aF0.7058823529411764
aF0.7058823529411764
aF0.7058823529411764
aF0.7058823529411764
asg95
(lp2817
F1.0
aF1.0
aF1.0
aF1.0
aF1.0
aF1.0
aF1.0
aF1.0
aF1.0
aF1.0
aF1.0
aF1.0
aF1.0
aF1.0
aF1.0
aF1.0
aF1.0
aF1.0
aF1.0
aF1.0
aF1.0
aF1.0
aF1.0
aF1.0
aF1.0
asg97
(lp2818
F1.0
aF1.0
aF1.0
aF1.0
aF1.0
aF1.0
aF1.0
aF1.0
aF1.0
aF1.0
aF1.0
aF1.0
aF1.0
aF1.0
aF1.0
aF1.0
aF1.0
aF1.0
aF1.0
aF1.0
aF1.0
aF1.0
aF1.0
aF1.0
aF1.0
assg514
(dp2819
g5
(lp2820
F0.5454545454545454
aF0.5454545454545454
aF0.5454545454545454
aF0.5454545454545454
aF0.5454545454545454
aF0.5454545454545454
aF0.5454545454545454
aF0.5454545454545454
aF0.5454545454545454
aF0.5454545454545454
aF0.5454545454545454
aF0.5454545454545454
aF0.5454545454545454
aF0.5454545454545454
aF0.5454545454545454
aF0.5454545454545454
aF0.5454545454545454
aF0.5454545454545454
aF0.5454545454545454
aF0.5454545454545454
aF0.5454545454545454
aF0.5454545454545454
aF0.5454545454545454
aF0.5454545454545454
aF0.5454545454545454
asg7
(lp2821
F0.5454545454545454
aF0.5454545454545454
aF0.5454545454545454
aF0.5454545454545454
aF0.5454545454545454
aF0.5454545454545454
aF0.5454545454545454
aF0.5454545454545454
aF0.5454545454545454
aF0.5454545454545454
aF0.5454545454545454
aF0.5454545454545454
aF0.5454545454545454
aF0.5454545454545454
aF0.5454545454545454
aF0.5454545454545454
aF0.5454545454545454
aF0.5454545454545454
aF0.5454545454545454
aF0.5454545454545454
aF0.5454545454545454
aF0.5454545454545454
aF0.5454545454545454
aF0.5454545454545454
aF0.5454545454545454
asg9
(lp2822
g11
(g15
S'\x00\x00\x00\x00\x00\x00\xe0?'
p2823
tp2824
Rp2825
ag11
(g15
S'\x00\x00\x00\x00\x00\x00\xe0?'
p2826
tp2827
Rp2828
ag11
(g15
S'\x00\x00\x00\x00\x00\x00\xe0?'
p2829
tp2830
Rp2831
ag11
(g15
S'\x00\x00\x00\x00\x00\x00\xe0?'
p2832
tp2833
Rp2834
ag11
(g15
S'\x00\x00\x00\x00\x00\x00\xe0?'
p2835
tp2836
Rp2837
ag11
(g15
S'\x00\x00\x00\x00\x00\x00\xe0?'
p2838
tp2839
Rp2840
ag11
(g15
S'\x00\x00\x00\x00\x00\x00\xe0?'
p2841
tp2842
Rp2843
ag11
(g15
S'\x00\x00\x00\x00\x00\x00\xe0?'
p2844
tp2845
Rp2846
ag11
(g15
S'\x00\x00\x00\x00\x00\x00\xe0?'
p2847
tp2848
Rp2849
ag11
(g15
S'\x00\x00\x00\x00\x00\x00\xe0?'
p2850
tp2851
Rp2852
ag11
(g15
S'\x00\x00\x00\x00\x00\x00\xe0?'
p2853
tp2854
Rp2855
ag11
(g15
S'\x00\x00\x00\x00\x00\x00\xe0?'
p2856
tp2857
Rp2858
ag11
(g15
S'\x00\x00\x00\x00\x00\x00\xe0?'
p2859
tp2860
Rp2861
ag11
(g15
S'\x00\x00\x00\x00\x00\x00\xe0?'
p2862
tp2863
Rp2864
ag11
(g15
S'\x00\x00\x00\x00\x00\x00\xe0?'
p2865
tp2866
Rp2867
ag11
(g15
S'\x00\x00\x00\x00\x00\x00\xe0?'
p2868
tp2869
Rp2870
ag11
(g15
S'\x00\x00\x00\x00\x00\x00\xe0?'
p2871
tp2872
Rp2873
ag11
(g15
S'\x00\x00\x00\x00\x00\x00\xe0?'
p2874
tp2875
Rp2876
ag11
(g15
S'\x00\x00\x00\x00\x00\x00\xe0?'
p2877
tp2878
Rp2879
ag11
(g15
S'\x00\x00\x00\x00\x00\x00\xe0?'
p2880
tp2881
Rp2882
ag11
(g15
S'\x00\x00\x00\x00\x00\x00\xe0?'
p2883
tp2884
Rp2885
ag11
(g15
S'\x00\x00\x00\x00\x00\x00\xe0?'
p2886
tp2887
Rp2888
ag11
(g15
S'\x00\x00\x00\x00\x00\x00\xe0?'
p2889
tp2890
Rp2891
ag11
(g15
S'\x00\x00\x00\x00\x00\x00\xe0?'
p2892
tp2893
Rp2894
ag11
(g15
S'\x00\x00\x00\x00\x00\x00\xe0?'
p2895
tp2896
Rp2897
asg93
(lp2898
F0.7058823529411764
aF0.7058823529411764
aF0.7058823529411764
aF0.7058823529411764
aF0.7058823529411764
aF0.7058823529411764
aF0.7058823529411764
aF0.7058823529411764
aF0.7058823529411764
aF0.7058823529411764
aF0.7058823529411764
aF0.7058823529411764
aF0.7058823529411764
aF0.7058823529411764
aF0.7058823529411764
aF0.7058823529411764
aF0.7058823529411764
aF0.7058823529411764
aF0.7058823529411764
aF0.7058823529411764
aF0.7058823529411764
aF0.7058823529411764
aF0.7058823529411764
aF0.7058823529411764
aF0.7058823529411764
asg95
(lp2899
F1.0
aF1.0
aF1.0
aF1.0
aF1.0
aF1.0
aF1.0
aF1.0
aF1.0
aF1.0
aF1.0
aF1.0
aF1.0
aF1.0
aF1.0
aF1.0
aF1.0
aF1.0
aF1.0
aF1.0
aF1.0
aF1.0
aF1.0
aF1.0
aF1.0
asg97
(lp2900
F1.0
aF1.0
aF1.0
aF1.0
aF1.0
aF1.0
aF1.0
aF1.0
aF1.0
aF1.0
aF1.0
aF1.0
aF1.0
aF1.0
aF1.0
aF1.0
aF1.0
aF1.0
aF1.0
aF1.0
aF1.0
aF1.0
aF1.0
aF1.0
aF1.0
asssS'Facebook'
p2901
(dp2902
g3
(dp2903
g5
(lp2904
F0.49740932642487046
aF0.49740932642487046
aF0.49740932642487046
aF0.49740932642487046
aF0.49740932642487046
aF0.49740932642487046
aF0.49740932642487046
aF0.49740932642487046
aF0.49740932642487046
aF0.49740932642487046
aF0.49740932642487046
aF0.49740932642487046
aF0.49740932642487046
aF0.49740932642487046
aF0.49740932642487046
aF0.49740932642487046
aF0.49740932642487046
aF0.49740932642487046
aF0.49740932642487046
aF0.49740932642487046
aF0.49740932642487046
aF0.49740932642487046
aF0.49740932642487046
aF0.49740932642487046
aF0.49740932642487046
asg7
(lp2905
F0.49740932642487046
aF0.49740932642487046
aF0.49740932642487046
aF0.49740932642487046
aF0.49740932642487046
aF0.49740932642487046
aF0.49740932642487046
aF0.49740932642487046
aF0.49740932642487046
aF0.49740932642487046
aF0.49740932642487046
aF0.49740932642487046
aF0.49740932642487046
aF0.49740932642487046
aF0.49740932642487046
aF0.49740932642487046
aF0.49740932642487046
aF0.49740932642487046
aF0.49740932642487046
aF0.49740932642487046
aF0.49740932642487046
aF0.49740932642487046
aF0.49740932642487046
aF0.49740932642487046
aF0.49740932642487046
asg9
(lp2906
g11
(g15
S'\x00\x00\x00\x00\x00\x00\xe0?'
p2907
tp2908
Rp2909
ag11
(g15
S'\x00\x00\x00\x00\x00\x00\xe0?'
p2910
tp2911
Rp2912
ag11
(g15
S'\x00\x00\x00\x00\x00\x00\xe0?'
p2913
tp2914
Rp2915
ag11
(g15
S'\x00\x00\x00\x00\x00\x00\xe0?'
p2916
tp2917
Rp2918
ag11
(g15
S'\x00\x00\x00\x00\x00\x00\xe0?'
p2919
tp2920
Rp2921
ag11
(g15
S'\x00\x00\x00\x00\x00\x00\xe0?'
p2922
tp2923
Rp2924
ag11
(g15
S'\x00\x00\x00\x00\x00\x00\xe0?'
p2925
tp2926
Rp2927
ag11
(g15
S'\x00\x00\x00\x00\x00\x00\xe0?'
p2928
tp2929
Rp2930
ag11
(g15
S'\x00\x00\x00\x00\x00\x00\xe0?'
p2931
tp2932
Rp2933
ag11
(g15
S'\x00\x00\x00\x00\x00\x00\xe0?'
p2934
tp2935
Rp2936
ag11
(g15
S'\x00\x00\x00\x00\x00\x00\xe0?'
p2937
tp2938
Rp2939
ag11
(g15
S'\x00\x00\x00\x00\x00\x00\xe0?'
p2940
tp2941
Rp2942
ag11
(g15
S'\x00\x00\x00\x00\x00\x00\xe0?'
p2943
tp2944
Rp2945
ag11
(g15
S'\x00\x00\x00\x00\x00\x00\xe0?'
p2946
tp2947
Rp2948
ag11
(g15
S'\x00\x00\x00\x00\x00\x00\xe0?'
p2949
tp2950
Rp2951
ag11
(g15
S'\x00\x00\x00\x00\x00\x00\xe0?'
p2952
tp2953
Rp2954
ag11
(g15
S'\x00\x00\x00\x00\x00\x00\xe0?'
p2955
tp2956
Rp2957
ag11
(g15
S'\x00\x00\x00\x00\x00\x00\xe0?'
p2958
tp2959
Rp2960
ag11
(g15
S'\x00\x00\x00\x00\x00\x00\xe0?'
p2961
tp2962
Rp2963
ag11
(g15
S'\x00\x00\x00\x00\x00\x00\xe0?'
p2964
tp2965
Rp2966
ag11
(g15
S'\x00\x00\x00\x00\x00\x00\xe0?'
p2967
tp2968
Rp2969
ag11
(g15
S'\x00\x00\x00\x00\x00\x00\xe0?'
p2970
tp2971
Rp2972
ag11
(g15
S'\x00\x00\x00\x00\x00\x00\xe0?'
p2973
tp2974
Rp2975
ag11
(g15
S'\x00\x00\x00\x00\x00\x00\xe0?'
p2976
tp2977
Rp2978
ag11
(g15
S'\x00\x00\x00\x00\x00\x00\xe0?'
p2979
tp2980
Rp2981
asg93
(lp2982
F0.6643598615916955
aF0.6643598615916955
aF0.6643598615916955
aF0.6643598615916955
aF0.6643598615916955
aF0.6643598615916955
aF0.6643598615916955
aF0.6643598615916955
aF0.6643598615916955
aF0.6643598615916955
aF0.6643598615916955
aF0.6643598615916955
aF0.6643598615916955
aF0.6643598615916955
aF0.6643598615916955
aF0.6643598615916955
aF0.6643598615916955
aF0.6643598615916955
aF0.6643598615916955
aF0.6643598615916955
aF0.6643598615916955
aF0.6643598615916955
aF0.6643598615916955
aF0.6643598615916955
aF0.6643598615916955
asg95
(lp2983
F1.0
aF1.0
aF1.0
aF1.0
aF1.0
aF1.0
aF1.0
aF1.0
aF1.0
aF1.0
aF1.0
aF1.0
aF1.0
aF1.0
aF1.0
aF1.0
aF1.0
aF1.0
aF1.0
aF1.0
aF1.0
aF1.0
aF1.0
aF1.0
aF1.0
asg97
(lp2984
F1.0
aF1.0
aF1.0
aF1.0
aF1.0
aF1.0
aF1.0
aF1.0
aF1.0
aF1.0
aF1.0
aF1.0
aF1.0
aF1.0
aF1.0
aF1.0
aF1.0
aF1.0
aF1.0
aF1.0
aF1.0
aF1.0
aF1.0
aF1.0
aF1.0
assg99
(dp2985
g5
(lp2986
F0.49740932642487046
aF0.49740932642487046
aF0.49740932642487046
aF0.49740932642487046
aF0.49740932642487046
aF0.49740932642487046
aF0.49740932642487046
aF0.49740932642487046
aF0.49740932642487046
aF0.49740932642487046
aF0.49740932642487046
aF0.49740932642487046
aF0.49740932642487046
aF0.49740932642487046
aF0.49740932642487046
aF0.49740932642487046
aF0.49740932642487046
aF0.49740932642487046
aF0.49740932642487046
aF0.49740932642487046
aF0.49740932642487046
aF0.49740932642487046
aF0.49740932642487046
aF0.49740932642487046
aF0.49740932642487046
asg7
(lp2987
F0.49740932642487046
aF0.49740932642487046
aF0.49740932642487046
aF0.49740932642487046
aF0.49740932642487046
aF0.49740932642487046
aF0.49740932642487046
aF0.49740932642487046
aF0.49740932642487046
aF0.49740932642487046
aF0.49740932642487046
aF0.49740932642487046
aF0.49740932642487046
aF0.49740932642487046
aF0.49740932642487046
aF0.49740932642487046
aF0.49740932642487046
aF0.49740932642487046
aF0.49740932642487046
aF0.49740932642487046
aF0.49740932642487046
aF0.49740932642487046
aF0.49740932642487046
aF0.49740932642487046
aF0.49740932642487046
asg9
(lp2988
g11
(g15
S'\x00\x00\x00\x00\x00\x00\xe0?'
p2989
tp2990
Rp2991
ag11
(g15
S'\x00\x00\x00\x00\x00\x00\xe0?'
p2992
tp2993
Rp2994
ag11
(g15
S'\x00\x00\x00\x00\x00\x00\xe0?'
p2995
tp2996
Rp2997
ag11
(g15
S'\x00\x00\x00\x00\x00\x00\xe0?'
p2998
tp2999
Rp3000
ag11
(g15
S'\x00\x00\x00\x00\x00\x00\xe0?'
p3001
tp3002
Rp3003
ag11
(g15
S'\x00\x00\x00\x00\x00\x00\xe0?'
p3004
tp3005
Rp3006
ag11
(g15
S'\x00\x00\x00\x00\x00\x00\xe0?'
p3007
tp3008
Rp3009
ag11
(g15
S'\x00\x00\x00\x00\x00\x00\xe0?'
p3010
tp3011
Rp3012
ag11
(g15
S'\x00\x00\x00\x00\x00\x00\xe0?'
p3013
tp3014
Rp3015
ag11
(g15
S'\x00\x00\x00\x00\x00\x00\xe0?'
p3016
tp3017
Rp3018
ag11
(g15
S'\x00\x00\x00\x00\x00\x00\xe0?'
p3019
tp3020
Rp3021
ag11
(g15
S'\x00\x00\x00\x00\x00\x00\xe0?'
p3022
tp3023
Rp3024
ag11
(g15
S'\x00\x00\x00\x00\x00\x00\xe0?'
p3025
tp3026
Rp3027
ag11
(g15
S'\x00\x00\x00\x00\x00\x00\xe0?'
p3028
tp3029
Rp3030
ag11
(g15
S'\x00\x00\x00\x00\x00\x00\xe0?'
p3031
tp3032
Rp3033
ag11
(g15
S'\x00\x00\x00\x00\x00\x00\xe0?'
p3034
tp3035
Rp3036
ag11
(g15
S'\x00\x00\x00\x00\x00\x00\xe0?'
p3037
tp3038
Rp3039
ag11
(g15
S'\x00\x00\x00\x00\x00\x00\xe0?'
p3040
tp3041
Rp3042
ag11
(g15
S'\x00\x00\x00\x00\x00\x00\xe0?'
p3043
tp3044
Rp3045
ag11
(g15
S'\x00\x00\x00\x00\x00\x00\xe0?'
p3046
tp3047
Rp3048
ag11
(g15
S'\x00\x00\x00\x00\x00\x00\xe0?'
p3049
tp3050
Rp3051
ag11
(g15
S'\x00\x00\x00\x00\x00\x00\xe0?'
p3052
tp3053
Rp3054
ag11
(g15
S'\x00\x00\x00\x00\x00\x00\xe0?'
p3055
tp3056
Rp3057
ag11
(g15
S'\x00\x00\x00\x00\x00\x00\xe0?'
p3058
tp3059
Rp3060
ag11
(g15
S'\x00\x00\x00\x00\x00\x00\xe0?'
p3061
tp3062
Rp3063
asg93
(lp3064
F0.6643598615916955
aF0.6643598615916955
aF0.6643598615916955
aF0.6643598615916955
aF0.6643598615916955
aF0.6643598615916955
aF0.6643598615916955
aF0.6643598615916955
aF0.6643598615916955
aF0.6643598615916955
aF0.6643598615916955
aF0.6643598615916955
aF0.6643598615916955
aF0.6643598615916955
aF0.6643598615916955
aF0.6643598615916955
aF0.6643598615916955
aF0.6643598615916955
aF0.6643598615916955
aF0.6643598615916955
aF0.6643598615916955
aF0.6643598615916955
aF0.6643598615916955
aF0.6643598615916955
aF0.6643598615916955
asg95
(lp3065
F1.0
aF1.0
aF1.0
aF1.0
aF1.0
aF1.0
aF1.0
aF1.0
aF1.0
aF1.0
aF1.0
aF1.0
aF1.0
aF1.0
aF1.0
aF1.0
aF1.0
aF1.0
aF1.0
aF1.0
aF1.0
aF1.0
aF1.0
aF1.0
aF1.0
asg97
(lp3066
F1.0
aF1.0
aF1.0
aF1.0
aF1.0
aF1.0
aF1.0
aF1.0
aF1.0
aF1.0
aF1.0
aF1.0
aF1.0
aF1.0
aF1.0
aF1.0
aF1.0
aF1.0
aF1.0
aF1.0
aF1.0
aF1.0
aF1.0
aF1.0
aF1.0
assg182
(dp3067
g5
(lp3068
F0.49740932642487046
aF0.49740932642487046
aF0.49740932642487046
aF0.49740932642487046
aF0.49740932642487046
aF0.49740932642487046
aF0.49740932642487046
aF0.49740932642487046
aF0.49740932642487046
aF0.49740932642487046
aF0.49740932642487046
aF0.49740932642487046
aF0.49740932642487046
aF0.49740932642487046
aF0.49740932642487046
aF0.49740932642487046
aF0.49740932642487046
aF0.49740932642487046
aF0.49740932642487046
aF0.49740932642487046
aF0.49740932642487046
aF0.49740932642487046
aF0.49740932642487046
aF0.49740932642487046
aF0.49740932642487046
asg7
(lp3069
F0.49740932642487046
aF0.49740932642487046
aF0.49740932642487046
aF0.49740932642487046
aF0.49740932642487046
aF0.49740932642487046
aF0.49740932642487046
aF0.49740932642487046
aF0.49740932642487046
aF0.49740932642487046
aF0.49740932642487046
aF0.49740932642487046
aF0.49740932642487046
aF0.49740932642487046
aF0.49740932642487046
aF0.49740932642487046
aF0.49740932642487046
aF0.49740932642487046
aF0.49740932642487046
aF0.49740932642487046
aF0.49740932642487046
aF0.49740932642487046
aF0.49740932642487046
aF0.49740932642487046
aF0.49740932642487046
asg9
(lp3070
g11
(g15
S'\x00\x00\x00\x00\x00\x00\xe0?'
p3071
tp3072
Rp3073
ag11
(g15
S'\x00\x00\x00\x00\x00\x00\xe0?'
p3074
tp3075
Rp3076
ag11
(g15
S'\x00\x00\x00\x00\x00\x00\xe0?'
p3077
tp3078
Rp3079
ag11
(g15
S'\x00\x00\x00\x00\x00\x00\xe0?'
p3080
tp3081
Rp3082
ag11
(g15
S'\x00\x00\x00\x00\x00\x00\xe0?'
p3083
tp3084
Rp3085
ag11
(g15
S'\x00\x00\x00\x00\x00\x00\xe0?'
p3086
tp3087
Rp3088
ag11
(g15
S'\x00\x00\x00\x00\x00\x00\xe0?'
p3089
tp3090
Rp3091
ag11
(g15
S'\x00\x00\x00\x00\x00\x00\xe0?'
p3092
tp3093
Rp3094
ag11
(g15
S'\x00\x00\x00\x00\x00\x00\xe0?'
p3095
tp3096
Rp3097
ag11
(g15
S'\x00\x00\x00\x00\x00\x00\xe0?'
p3098
tp3099
Rp3100
ag11
(g15
S'\x00\x00\x00\x00\x00\x00\xe0?'
p3101
tp3102
Rp3103
ag11
(g15
S'\x00\x00\x00\x00\x00\x00\xe0?'
p3104
tp3105
Rp3106
ag11
(g15
S'\x00\x00\x00\x00\x00\x00\xe0?'
p3107
tp3108
Rp3109
ag11
(g15
S'\x00\x00\x00\x00\x00\x00\xe0?'
p3110
tp3111
Rp3112
ag11
(g15
S'\x00\x00\x00\x00\x00\x00\xe0?'
p3113
tp3114
Rp3115
ag11
(g15
S'\x00\x00\x00\x00\x00\x00\xe0?'
p3116
tp3117
Rp3118
ag11
(g15
S'\x00\x00\x00\x00\x00\x00\xe0?'
p3119
tp3120
Rp3121
ag11
(g15
S'\x00\x00\x00\x00\x00\x00\xe0?'
p3122
tp3123
Rp3124
ag11
(g15
S'\x00\x00\x00\x00\x00\x00\xe0?'
p3125
tp3126
Rp3127
ag11
(g15
S'\x00\x00\x00\x00\x00\x00\xe0?'
p3128
tp3129
Rp3130
ag11
(g15
S'\x00\x00\x00\x00\x00\x00\xe0?'
p3131
tp3132
Rp3133
ag11
(g15
S'\x00\x00\x00\x00\x00\x00\xe0?'
p3134
tp3135
Rp3136
ag11
(g15
S'\x00\x00\x00\x00\x00\x00\xe0?'
p3137
tp3138
Rp3139
ag11
(g15
S'\x00\x00\x00\x00\x00\x00\xe0?'
p3140
tp3141
Rp3142
ag11
(g15
S'\x00\x00\x00\x00\x00\x00\xe0?'
p3143
tp3144
Rp3145
asg93
(lp3146
F0.6643598615916955
aF0.6643598615916955
aF0.6643598615916955
aF0.6643598615916955
aF0.6643598615916955
aF0.6643598615916955
aF0.6643598615916955
aF0.6643598615916955
aF0.6643598615916955
aF0.6643598615916955
aF0.6643598615916955
aF0.6643598615916955
aF0.6643598615916955
aF0.6643598615916955
aF0.6643598615916955
aF0.6643598615916955
aF0.6643598615916955
aF0.6643598615916955
aF0.6643598615916955
aF0.6643598615916955
aF0.6643598615916955
aF0.6643598615916955
aF0.6643598615916955
aF0.6643598615916955
aF0.6643598615916955
asg95
(lp3147
F1.0
aF1.0
aF1.0
aF1.0
aF1.0
aF1.0
aF1.0
aF1.0
aF1.0
aF1.0
aF1.0
aF1.0
aF1.0
aF1.0
aF1.0
aF1.0
aF1.0
aF1.0
aF1.0
aF1.0
aF1.0
aF1.0
aF1.0
aF1.0
aF1.0
asg97
(lp3148
F1.0
aF1.0
aF1.0
aF1.0
aF1.0
aF1.0
aF1.0
aF1.0
aF1.0
aF1.0
aF1.0
aF1.0
aF1.0
aF1.0
aF1.0
aF1.0
aF1.0
aF1.0
aF1.0
aF1.0
aF1.0
aF1.0
aF1.0
aF1.0
aF1.0
assg265
(dp3149
g5
(lp3150
F0.49740932642487046
aF0.49740932642487046
aF0.49740932642487046
aF0.49740932642487046
aF0.49740932642487046
aF0.49740932642487046
aF0.49740932642487046
aF0.49740932642487046
aF0.49740932642487046
aF0.49740932642487046
aF0.49740932642487046
aF0.49740932642487046
aF0.49740932642487046
aF0.49740932642487046
aF0.49740932642487046
aF0.49740932642487046
aF0.49740932642487046
aF0.49740932642487046
aF0.49740932642487046
aF0.49740932642487046
aF0.49740932642487046
aF0.49740932642487046
aF0.49740932642487046
aF0.49740932642487046
aF0.49740932642487046
asg7
(lp3151
F0.49740932642487046
aF0.49740932642487046
aF0.49740932642487046
aF0.49740932642487046
aF0.49740932642487046
aF0.49740932642487046
aF0.49740932642487046
aF0.49740932642487046
aF0.49740932642487046
aF0.49740932642487046
aF0.49740932642487046
aF0.49740932642487046
aF0.49740932642487046
aF0.49740932642487046
aF0.49740932642487046
aF0.49740932642487046
aF0.49740932642487046
aF0.49740932642487046
aF0.49740932642487046
aF0.49740932642487046
aF0.49740932642487046
aF0.49740932642487046
aF0.49740932642487046
aF0.49740932642487046
aF0.49740932642487046
asg9
(lp3152
g11
(g15
S'\x00\x00\x00\x00\x00\x00\xe0?'
p3153
tp3154
Rp3155
ag11
(g15
S'\x00\x00\x00\x00\x00\x00\xe0?'
p3156
tp3157
Rp3158
ag11
(g15
S'\x00\x00\x00\x00\x00\x00\xe0?'
p3159
tp3160
Rp3161
ag11
(g15
S'\x00\x00\x00\x00\x00\x00\xe0?'
p3162
tp3163
Rp3164
ag11
(g15
S'\x00\x00\x00\x00\x00\x00\xe0?'
p3165
tp3166
Rp3167
ag11
(g15
S'\x00\x00\x00\x00\x00\x00\xe0?'
p3168
tp3169
Rp3170
ag11
(g15
S'\x00\x00\x00\x00\x00\x00\xe0?'
p3171
tp3172
Rp3173
ag11
(g15
S'\x00\x00\x00\x00\x00\x00\xe0?'
p3174
tp3175
Rp3176
ag11
(g15
S'\x00\x00\x00\x00\x00\x00\xe0?'
p3177
tp3178
Rp3179
ag11
(g15
S'\x00\x00\x00\x00\x00\x00\xe0?'
p3180
tp3181
Rp3182
ag11
(g15
S'\x00\x00\x00\x00\x00\x00\xe0?'
p3183
tp3184
Rp3185
ag11
(g15
S'\x00\x00\x00\x00\x00\x00\xe0?'
p3186
tp3187
Rp3188
ag11
(g15
S'\x00\x00\x00\x00\x00\x00\xe0?'
p3189
tp3190
Rp3191
ag11
(g15
S'\x00\x00\x00\x00\x00\x00\xe0?'
p3192
tp3193
Rp3194
ag11
(g15
S'\x00\x00\x00\x00\x00\x00\xe0?'
p3195
tp3196
Rp3197
ag11
(g15
S'\x00\x00\x00\x00\x00\x00\xe0?'
p3198
tp3199
Rp3200
ag11
(g15
S'\x00\x00\x00\x00\x00\x00\xe0?'
p3201
tp3202
Rp3203
ag11
(g15
S'\x00\x00\x00\x00\x00\x00\xe0?'
p3204
tp3205
Rp3206
ag11
(g15
S'\x00\x00\x00\x00\x00\x00\xe0?'
p3207
tp3208
Rp3209
ag11
(g15
S'\x00\x00\x00\x00\x00\x00\xe0?'
p3210
tp3211
Rp3212
ag11
(g15
S'\x00\x00\x00\x00\x00\x00\xe0?'
p3213
tp3214
Rp3215
ag11
(g15
S'\x00\x00\x00\x00\x00\x00\xe0?'
p3216
tp3217
Rp3218
ag11
(g15
S'\x00\x00\x00\x00\x00\x00\xe0?'
p3219
tp3220
Rp3221
ag11
(g15
S'\x00\x00\x00\x00\x00\x00\xe0?'
p3222
tp3223
Rp3224
ag11
(g15
S'\x00\x00\x00\x00\x00\x00\xe0?'
p3225
tp3226
Rp3227
asg93
(lp3228
F0.6643598615916955
aF0.6643598615916955
aF0.6643598615916955
aF0.6643598615916955
aF0.6643598615916955
aF0.6643598615916955
aF0.6643598615916955
aF0.6643598615916955
aF0.6643598615916955
aF0.6643598615916955
aF0.6643598615916955
aF0.6643598615916955
aF0.6643598615916955
aF0.6643598615916955
aF0.6643598615916955
aF0.6643598615916955
aF0.6643598615916955
aF0.6643598615916955
aF0.6643598615916955
aF0.6643598615916955
aF0.6643598615916955
aF0.6643598615916955
aF0.6643598615916955
aF0.6643598615916955
aF0.6643598615916955
asg95
(lp3229
F1.0
aF1.0
aF1.0
aF1.0
aF1.0
aF1.0
aF1.0
aF1.0
aF1.0
aF1.0
aF1.0
aF1.0
aF1.0
aF1.0
aF1.0
aF1.0
aF1.0
aF1.0
aF1.0
aF1.0
aF1.0
aF1.0
aF1.0
aF1.0
aF1.0
asg97
(lp3230
F1.0
aF1.0
aF1.0
aF1.0
aF1.0
aF1.0
aF1.0
aF1.0
aF1.0
aF1.0
aF1.0
aF1.0
aF1.0
aF1.0
aF1.0
aF1.0
aF1.0
aF1.0
aF1.0
aF1.0
aF1.0
aF1.0
aF1.0
aF1.0
aF1.0
assg348
(dp3231
g5
(lp3232
F0.694300518134715
aF0.694300518134715
aF0.694300518134715
aF0.694300518134715
aF0.694300518134715
aF0.694300518134715
aF0.694300518134715
aF0.694300518134715
aF0.694300518134715
aF0.694300518134715
aF0.694300518134715
aF0.694300518134715
aF0.8238341968911918
aF0.694300518134715
aF0.694300518134715
aF0.694300518134715
aF0.8238341968911918
aF0.694300518134715
aF0.694300518134715
aF0.694300518134715
aF0.8238341968911918
aF0.694300518134715
aF0.694300518134715
aF0.694300518134715
aF0.694300518134715
asg7
(lp3233
F1.0
aF1.0
aF1.0
aF1.0
aF1.0
aF1.0
aF1.0
aF1.0
aF1.0
aF1.0
aF1.0
aF1.0
aF1.0
aF1.0
aF1.0
aF1.0
aF1.0
aF1.0
aF1.0
aF1.0
aF1.0
aF1.0
aF1.0
aF1.0
aF1.0
asg9
(lp3234
g11
(g15
S'\xab\xaa\xaa\xaa\xaa*\xe6?'
p3235
tp3236
Rp3237
ag11
(g15
S'\xab\xaa\xaa\xaa\xaa*\xe6?'
p3238
tp3239
Rp3240
ag11
(g15
S'\xab\xaa\xaa\xaa\xaa*\xe6?'
p3241
tp3242
Rp3243
ag11
(g15
S'\xab\xaa\xaa\xaa\xaa*\xe6?'
p3244
tp3245
Rp3246
ag11
(g15
S'\xab\xaa\xaa\xaa\xaa*\xe6?'
p3247
tp3248
Rp3249
ag11
(g15
S'\xab\xaa\xaa\xaa\xaa*\xe6?'
p3250
tp3251
Rp3252
ag11
(g15
S'\xab\xaa\xaa\xaa\xaa*\xe6?'
p3253
tp3254
Rp3255
ag11
(g15
S'\xab\xaa\xaa\xaa\xaa*\xe6?'
p3256
tp3257
Rp3258
ag11
(g15
S'\xab\xaa\xaa\xaa\xaa*\xe6?'
p3259
tp3260
Rp3261
ag11
(g15
S'\xab\xaa\xaa\xaa\xaa*\xe6?'
p3262
tp3263
Rp3264
ag11
(g15
S'\xab\xaa\xaa\xaa\xaa*\xe6?'
p3265
tp3266
Rp3267
ag11
(g15
S'\xab\xaa\xaa\xaa\xaa*\xe6?'
p3268
tp3269
Rp3270
ag11
(g15
S'VUUUUU\xea?'
p3271
tp3272
Rp3273
ag11
(g15
S'\xab\xaa\xaa\xaa\xaa*\xe6?'
p3274
tp3275
Rp3276
ag11
(g15
S'\xab\xaa\xaa\xaa\xaa*\xe6?'
p3277
tp3278
Rp3279
ag11
(g15
S'\xab\xaa\xaa\xaa\xaa*\xe6?'
p3280
tp3281
Rp3282
ag11
(g15
S'VUUUUU\xea?'
p3283
tp3284
Rp3285
ag11
(g15
S'\xab\xaa\xaa\xaa\xaa*\xe6?'
p3286
tp3287
Rp3288
ag11
(g15
S'\xab\xaa\xaa\xaa\xaa*\xe6?'
p3289
tp3290
Rp3291
ag11
(g15
S'\xab\xaa\xaa\xaa\xaa*\xe6?'
p3292
tp3293
Rp3294
ag11
(g15
S'VUUUUU\xea?'
p3295
tp3296
Rp3297
ag11
(g15
S'\xab\xaa\xaa\xaa\xaa*\xe6?'
p3298
tp3299
Rp3300
ag11
(g15
S'\xab\xaa\xaa\xaa\xaa*\xe6?'
p3301
tp3302
Rp3303
ag11
(g15
S'\xab\xaa\xaa\xaa\xaa*\xe6?'
p3304
tp3305
Rp3306
ag11
(g15
S'\xab\xaa\xaa\xaa\xaa*\xe6?'
p3307
tp3308
Rp3309
asg93
(lp3310
F0.556390977443609
aF0.556390977443609
aF0.556390977443609
aF0.556390977443609
aF0.556390977443609
aF0.556390977443609
aF0.556390977443609
aF0.556390977443609
aF0.556390977443609
aF0.556390977443609
aF0.556390977443609
aF0.556390977443609
aF0.7848101265822784
aF0.556390977443609
aF0.556390977443609
aF0.556390977443609
aF0.7848101265822784
aF0.556390977443609
aF0.556390977443609
aF0.556390977443609
aF0.7848101265822784
aF0.556390977443609
aF0.556390977443609
aF0.556390977443609
aF0.556390977443609
asg95
(lp3311
F0.0
aF0.0
aF0.0
aF0.0
aF0.0
aF0.0
aF0.0
aF0.0
aF0.0
aF0.0
aF0.0
aF0.0
aF0.0
aF0.0
aF0.0
aF0.0
aF0.0
aF0.0
aF0.0
aF0.0
aF0.0
aF0.0
aF0.0
aF0.0
aF0.0
asg97
(lp3312
F0.3854166666666667
aF0.3854166666666667
aF0.3854166666666667
aF0.3854166666666667
aF0.3854166666666667
aF0.3854166666666667
aF0.3854166666666667
aF0.3854166666666667
aF0.3854166666666667
aF0.3854166666666667
aF0.3854166666666667
aF0.3854166666666667
aF0.6458333333333334
aF0.3854166666666667
aF0.3854166666666667
aF0.3854166666666667
aF0.6458333333333334
aF0.3854166666666667
aF0.3854166666666667
aF0.3854166666666667
aF0.6458333333333334
aF0.3854166666666667
aF0.3854166666666667
aF0.3854166666666667
aF0.3854166666666667
assg431
(dp3313
g5
(lp3314
F0.49740932642487046
aF0.49740932642487046
aF0.49740932642487046
aF0.49740932642487046
aF0.49740932642487046
aF0.49740932642487046
aF0.49740932642487046
aF0.49740932642487046
aF0.49740932642487046
aF0.49740932642487046
aF0.49740932642487046
aF0.49740932642487046
aF0.49740932642487046
aF0.49740932642487046
aF0.49740932642487046
aF0.49740932642487046
aF0.49740932642487046
aF0.49740932642487046
aF0.49740932642487046
aF0.49740932642487046
aF0.49740932642487046
aF0.49740932642487046
aF0.49740932642487046
aF0.49740932642487046
aF0.49740932642487046
asg7
(lp3315
F0.49740932642487046
aF0.49740932642487046
aF0.49740932642487046
aF0.49740932642487046
aF0.49740932642487046
aF0.49740932642487046
aF0.49740932642487046
aF0.49740932642487046
aF0.49740932642487046
aF0.49740932642487046
aF0.49740932642487046
aF0.49740932642487046
aF0.49740932642487046
aF0.49740932642487046
aF0.49740932642487046
aF0.49740932642487046
aF0.49740932642487046
aF0.49740932642487046
aF0.49740932642487046
aF0.49740932642487046
aF0.49740932642487046
aF0.49740932642487046
aF0.49740932642487046
aF0.49740932642487046
aF0.49740932642487046
asg9
(lp3316
g11
(g15
S'\x00\x00\x00\x00\x00\x00\xe0?'
p3317
tp3318
Rp3319
ag11
(g15
S'\x00\x00\x00\x00\x00\x00\xe0?'
p3320
tp3321
Rp3322
ag11
(g15
S'\x00\x00\x00\x00\x00\x00\xe0?'
p3323
tp3324
Rp3325
ag11
(g15
S'\x00\x00\x00\x00\x00\x00\xe0?'
p3326
tp3327
Rp3328
ag11
(g15
S'\x00\x00\x00\x00\x00\x00\xe0?'
p3329
tp3330
Rp3331
ag11
(g15
S'\x00\x00\x00\x00\x00\x00\xe0?'
p3332
tp3333
Rp3334
ag11
(g15
S'\x00\x00\x00\x00\x00\x00\xe0?'
p3335
tp3336
Rp3337
ag11
(g15
S'\x00\x00\x00\x00\x00\x00\xe0?'
p3338
tp3339
Rp3340
ag11
(g15
S'\x00\x00\x00\x00\x00\x00\xe0?'
p3341
tp3342
Rp3343
ag11
(g15
S'\x00\x00\x00\x00\x00\x00\xe0?'
p3344
tp3345
Rp3346
ag11
(g15
S'\x00\x00\x00\x00\x00\x00\xe0?'
p3347
tp3348
Rp3349
ag11
(g15
S'\x00\x00\x00\x00\x00\x00\xe0?'
p3350
tp3351
Rp3352
ag11
(g15
S'\x00\x00\x00\x00\x00\x00\xe0?'
p3353
tp3354
Rp3355
ag11
(g15
S'\x00\x00\x00\x00\x00\x00\xe0?'
p3356
tp3357
Rp3358
ag11
(g15
S'\x00\x00\x00\x00\x00\x00\xe0?'
p3359
tp3360
Rp3361
ag11
(g15
S'\x00\x00\x00\x00\x00\x00\xe0?'
p3362
tp3363
Rp3364
ag11
(g15
S'\x00\x00\x00\x00\x00\x00\xe0?'
p3365
tp3366
Rp3367
ag11
(g15
S'\x00\x00\x00\x00\x00\x00\xe0?'
p3368
tp3369
Rp3370
ag11
(g15
S'\x00\x00\x00\x00\x00\x00\xe0?'
p3371
tp3372
Rp3373
ag11
(g15
S'\x00\x00\x00\x00\x00\x00\xe0?'
p3374
tp3375
Rp3376
ag11
(g15
S'\x00\x00\x00\x00\x00\x00\xe0?'
p3377
tp3378
Rp3379
ag11
(g15
S'\x00\x00\x00\x00\x00\x00\xe0?'
p3380
tp3381
Rp3382
ag11
(g15
S'\x00\x00\x00\x00\x00\x00\xe0?'
p3383
tp3384
Rp3385
ag11
(g15
S'\x00\x00\x00\x00\x00\x00\xe0?'
p3386
tp3387
Rp3388
ag11
(g15
S'\x00\x00\x00\x00\x00\x00\xe0?'
p3389
tp3390
Rp3391
asg93
(lp3392
F0.6643598615916955
aF0.6643598615916955
aF0.6643598615916955
aF0.6643598615916955
aF0.6643598615916955
aF0.6643598615916955
aF0.6643598615916955
aF0.6643598615916955
aF0.6643598615916955
aF0.6643598615916955
aF0.6643598615916955
aF0.6643598615916955
aF0.6643598615916955
aF0.6643598615916955
aF0.6643598615916955
aF0.6643598615916955
aF0.6643598615916955
aF0.6643598615916955
aF0.6643598615916955
aF0.6643598615916955
aF0.6643598615916955
aF0.6643598615916955
aF0.6643598615916955
aF0.6643598615916955
aF0.6643598615916955
asg95
(lp3393
F1.0
aF1.0
aF1.0
aF1.0
aF1.0
aF1.0
aF1.0
aF1.0
aF1.0
aF1.0
aF1.0
aF1.0
aF1.0
aF1.0
aF1.0
aF1.0
aF1.0
aF1.0
aF1.0
aF1.0
aF1.0
aF1.0
aF1.0
aF1.0
aF1.0
asg97
(lp3394
F1.0
aF1.0
aF1.0
aF1.0
aF1.0
aF1.0
aF1.0
aF1.0
aF1.0
aF1.0
aF1.0
aF1.0
aF1.0
aF1.0
aF1.0
aF1.0
aF1.0
aF1.0
aF1.0
aF1.0
aF1.0
aF1.0
aF1.0
aF1.0
aF1.0
assg514
(dp3395
g5
(lp3396
F0.49740932642487046
aF0.49740932642487046
aF0.49740932642487046
aF0.49740932642487046
aF0.49740932642487046
aF0.49740932642487046
aF0.49740932642487046
aF0.49740932642487046
aF0.49740932642487046
aF0.48186528497409326
aF0.49740932642487046
aF0.49740932642487046
aF0.49740932642487046
aF0.49740932642487046
aF0.49740932642487046
aF0.49740932642487046
aF0.49740932642487046
aF0.49740932642487046
aF0.49740932642487046
aF0.49740932642487046
aF0.49740932642487046
aF0.49740932642487046
aF0.49740932642487046
aF0.49740932642487046
aF0.48186528497409326
asg7
(lp3397
F0.49740932642487046
aF0.49740932642487046
aF0.49740932642487046
aF0.49740932642487046
aF0.49740932642487046
aF0.49740932642487046
aF0.49740932642487046
aF0.49740932642487046
aF0.49740932642487046
aF0.48947368421052634
aF0.49740932642487046
aF0.49740932642487046
aF0.49740932642487046
aF0.49740932642487046
aF0.49740932642487046
aF0.49740932642487046
aF0.49740932642487046
aF0.49740932642487046
aF0.49740932642487046
aF0.49740932642487046
aF0.49740932642487046
aF0.49740932642487046
aF0.49740932642487046
aF0.49740932642487046
aF0.48947368421052634
asg9
(lp3398
g11
(g15
S'\x00\x00\x00\x00\x00\x00\xe0?'
p3399
tp3400
Rp3401
ag11
(g15
S'\x00\x00\x00\x00\x00\x00\xe0?'
p3402
tp3403
Rp3404
ag11
(g15
S'\x00\x00\x00\x00\x00\x00\xe0?'
p3405
tp3406
Rp3407
ag11
(g15
S'\x00\x00\x00\x00\x00\x00\xe0?'
p3408
tp3409
Rp3410
ag11
(g15
S'\x00\x00\x00\x00\x00\x00\xe0?'
p3411
tp3412
Rp3413
ag11
(g15
S'\x00\x00\x00\x00\x00\x00\xe0?'
p3414
tp3415
Rp3416
ag11
(g15
S'\x00\x00\x00\x00\x00\x00\xe0?'
p3417
tp3418
Rp3419
ag11
(g15
S'\x00\x00\x00\x00\x00\x00\xe0?'
p3420
tp3421
Rp3422
ag11
(g15
S'\x00\x00\x00\x00\x00\x00\xe0?'
p3423
tp3424
Rp3425
ag11
(g15
S'\x00\x00\x00\x00\x00\x00\xdf?'
p3426
tp3427
Rp3428
ag11
(g15
S'\x00\x00\x00\x00\x00\x00\xe0?'
p3429
tp3430
Rp3431
ag11
(g15
S'\x00\x00\x00\x00\x00\x00\xe0?'
p3432
tp3433
Rp3434
ag11
(g15
S'\x00\x00\x00\x00\x00\x00\xe0?'
p3435
tp3436
Rp3437
ag11
(g15
S'\x00\x00\x00\x00\x00\x00\xe0?'
p3438
tp3439
Rp3440
ag11
(g15
S'\x00\x00\x00\x00\x00\x00\xe0?'
p3441
tp3442
Rp3443
ag11
(g15
S'\x00\x00\x00\x00\x00\x00\xe0?'
p3444
tp3445
Rp3446
ag11
(g15
S'\x00\x00\x00\x00\x00\x00\xe0?'
p3447
tp3448
Rp3449
ag11
(g15
S'\x00\x00\x00\x00\x00\x00\xe0?'
p3450
tp3451
Rp3452
ag11
(g15
S'\x00\x00\x00\x00\x00\x00\xe0?'
p3453
tp3454
Rp3455
ag11
(g15
S'\x00\x00\x00\x00\x00\x00\xe0?'
p3456
tp3457
Rp3458
ag11
(g15
S'\x00\x00\x00\x00\x00\x00\xe0?'
p3459
tp3460
Rp3461
ag11
(g15
S'\x00\x00\x00\x00\x00\x00\xe0?'
p3462
tp3463
Rp3464
ag11
(g15
S'\x00\x00\x00\x00\x00\x00\xe0?'
p3465
tp3466
Rp3467
ag11
(g15
S'\x00\x00\x00\x00\x00\x00\xe0?'
p3468
tp3469
Rp3470
ag11
(g15
S'\x00\x00\x00\x00\x00\x00\xdf?'
p3471
tp3472
Rp3473
asg93
(lp3474
F0.6643598615916955
aF0.6643598615916955
aF0.6643598615916955
aF0.6643598615916955
aF0.6643598615916955
aF0.6643598615916955
aF0.6643598615916955
aF0.6643598615916955
aF0.6643598615916955
aF0.6503496503496504
aF0.6643598615916955
aF0.6643598615916955
aF0.6643598615916955
aF0.6643598615916955
aF0.6643598615916955
aF0.6643598615916955
aF0.6643598615916955
aF0.6643598615916955
aF0.6643598615916955
aF0.6643598615916955
aF0.6643598615916955
aF0.6643598615916955
aF0.6643598615916955
aF0.6643598615916955
aF0.6503496503496504
asg95
(lp3475
F1.0
aF1.0
aF1.0
aF1.0
aF1.0
aF1.0
aF1.0
aF1.0
aF1.0
aF1.0
aF1.0
aF1.0
aF1.0
aF1.0
aF1.0
aF1.0
aF1.0
aF1.0
aF1.0
aF1.0
aF1.0
aF1.0
aF1.0
aF1.0
aF1.0
asg97
(lp3476
F1.0
aF1.0
aF1.0
aF1.0
aF1.0
aF1.0
aF1.0
aF1.0
aF1.0
aF0.96875
aF1.0
aF1.0
aF1.0
aF1.0
aF1.0
aF1.0
aF1.0
aF1.0
aF1.0
aF1.0
aF1.0
aF1.0
aF1.0
aF1.0
aF0.96875
asss.