(dp0
S'knn'
p1
(dp2
S'acc'
p3
(lp4
F0.9255908628293565
aF0.9156394888612461
aF0.9227725011307101
aF0.9233465234595817
aF0.9250423968343697
aF0.9221983489765917
aF0.916204907836707
aF0.9229986431478969
aF0.9216506500847936
aF0.9265121537591859
aF0.9208413434354857
aF0.9184665837385503
aF0.9279737675260064
aF0.9215375918598078
aF0.9198417184850198
aF0.9254777790342644
aF0.9269478683704625
aF0.9259384893713252
aF0.9209723007348785
aF0.921311475409836
aF0.9225376003618682
aF0.9214067624109465
aF0.9205110809588422
aF0.9242509892594686
aF0.927416619559073
asS'pre'
p5
(lp6
F0.9314459049544995
aF0.9237477185155141
aF0.9442931937172775
aF0.9324104234527687
aF0.9356223175965666
aF0.9291067449868341
aF0.9306298888431453
aF0.9368182753653015
aF0.9247441300421433
aF0.9404614750721055
aF0.9412993524127846
aF0.9341181330028914
aF0.9453790238836968
aF0.9393687707641196
aF0.9360910031023785
aF0.9223762376237624
aF0.9390519187358917
aF0.934132953852409
aF0.9315907698590974
aF0.9328694228407696
aF0.9429586293355621
aF0.9469568892645815
aF0.9329505843756407
aF0.9297253634894992
aF0.9299478121236451
asS'pf'
p7
(lp8
F0.08652373660030628
aF0.0959673302705462
aF0.06789178152118427
aF0.08471548864506252
aF0.08037764735902016
aF0.08933129147524248
aF0.0860132720775906
aF0.07835630423685554
aF0.09568767542740494
aF0.07374330186272009
aF0.07172026544155181
aF0.08141909137314957
aF0.06712608473711078
aF0.07450880326613932
aF0.07884664455218168
aF0.10005104645227157
aF0.07580398162327719
aF0.08269525267993874
aF0.08548099004848175
aF0.08369482010717019
aF0.06967840735068913
aF0.06406329760081675
aF0.08346094946401225
aF0.08879816279663179
aF0.08905332993110487
asS'f1'
p9
(lp10
F0.9333333333333333
aF0.9243100649350648
aF0.9295948871250387
aF0.9310835535677984
aF0.9324778490681332
aF0.9302372743865341
aF0.9242563630788103
aF0.9304036791006641
aF0.9300635785649409
aF0.9335378323108385
aF0.9279242174629325
aF0.926179993856865
aF0.934606303254286
aF0.9287620611784029
aF0.927363999590206
aF0.9339348370927318
aF0.934068177179016
aF0.9334687658710005
aF0.9288404764328617
aF0.9290664492458215
aF0.9294614354855318
aF0.9280314797556176
aF0.9282872590023462
aF0.9321725045555781
aF0.9352038756560355
asS'rec'
p11
(lp12
F0.9352284263959391
aF0.9248730964467005
aF0.915347137637028
aF0.929760454730004
aF0.9293544457978076
aF0.9313705583756345
aF0.9179695431472081
aF0.9240763296792529
aF0.9354445797807551
aF0.9267153877385302
aF0.9149238578680203
aF0.9183756345177665
aF0.9240763296792529
aF0.9183922046285018
aF0.9187982135606984
aF0.9457868020304568
aF0.9291370558375635
aF0.9328055217214779
aF0.9261063743402355
aF0.9252943564758425
aF0.9163451776649746
aF0.9098477157360406
aF0.9236703207470565
aF0.9346325619163621
aF0.9405196914332116
assS'rbf_svm'
p13
(dp14
g3
(lp15
F0.9267217007802782
aF0.9263824493950017
aF0.9284260515603799
aF0.9285472018089316
aF0.9293386093838327
aF0.9313581363790568
aF0.9254777790342644
aF0.9295567616463138
aF0.9240248728094969
aF0.9285472018089316
aF0.9268347845753704
aF0.9303403822232275
aF0.9242424242424242
aF0.9280949689089881
aF0.9295647258338045
aF0.9289833766821215
aF0.9318104715594255
aF0.9287652645861602
aF0.9300169587337479
aF0.9258338044092708
aF0.9254777790342644
aF0.9303403822232275
aF0.9322704658525554
aF0.9266252119841718
aF0.9259468626342566
asg5
(lp16
F0.9150009703085581
aF0.918527222875049
aF0.9183395049697914
aF0.9188451033944596
aF0.9222462203023758
aF0.9213505074160812
aF0.9205441640378549
aF0.9219454795057854
aF0.9104592821304516
aF0.9170551670551671
aF0.9205662603224538
aF0.918918918918919
aF0.9185680566483084
aF0.9096638655462185
aF0.925281676220597
aF0.9180774469741195
aF0.9232275754014885
aF0.9258524980174465
aF0.9188873759968877
aF0.9140806826997673
aF0.9130518977536793
aF0.918918918918919
aF0.9221463414634147
aF0.9118043520123242
aF0.9302841023574451
asg7
(lp17
F0.11179173047473201
aF0.10617662072485962
aF0.10694231750893313
aF0.10614952794080122
aF0.10104618525133963
aF0.10285860132720775
aF0.10285860132720775
aF0.10158244002041858
aF0.11839755039550906
aF0.1089563664200051
aF0.1031138335885656
aF0.10643185298621746
aF0.10566615620214395
aF0.12069405460576678
aF0.09645317683082419
aF0.1074527820316488
aF0.10005104645227157
aF0.09545686574783052
aF0.10640469507527431
aF0.11303904057157438
aF0.11459928534966819
aF0.10643185298621746
aF0.10183767228177641
aF0.11686654758867059
aF0.08828782852768563
asg9
(lp18
F0.9357015280809684
aF0.9351011863224006
aF0.9370587650392761
aF0.9371269399124552
aF0.9376185248028746
aF0.9395959796994726
aF0.9340802240672202
aF0.9378553615960099
aF0.9335180055401662
aF0.9372642445900338
aF0.935371091799021
aF0.9388160508541915
aF0.933066933066933
aF0.9374138949025782
aF0.9376064096144217
aF0.9375993640699524
aF0.9398863523078457
aF0.9368104312938816
aF0.9385119698023245
aF0.9349335449315611
aF0.9346813361086331
aF0.9388160508541915
aF0.940403939906477
aF0.9358632275916593
aF0.9337647891596723
asg11
(lp19
F0.9573604060913705
aF0.9522842639593908
aF0.9565570442549736
aF0.9561510353227771
aF0.9535119772634998
aF0.9585786802030457
aF0.9480203045685279
aF0.9543239951278928
aF0.9577750710515631
aF0.9583840844498579
aF0.9506598984771574
aF0.9595939086294416
aF0.9480308566788469
aF0.9669102720259846
aF0.9502639058059277
aF0.9579695431472082
aF0.9571573604060913
aF0.9480308566788469
aF0.9589930978481527
aF0.9567600487210719
aF0.9573604060913705
aF0.9595939086294416
aF0.9593991067803491
aF0.9612261469752335
aF0.9372716199756395
assS'lin_svm'
p20
(dp21
g3
(lp22
F0.9145086509103245
aF0.9214067624109465
aF0.9133876074174582
aF0.9191633691351045
aF0.9222159412097231
aF0.9181273323532738
aF0.918918918918919
aF0.9166666666666666
aF0.9156585641605427
aF0.9242509892594686
aF0.9143955671152324
aF0.9202759244600249
aF0.9205110809588422
aF0.9175805539853025
aF0.9207461842849067
aF0.9190320027140111
aF0.9186927513287346
aF0.9200587969244686
aF0.9208592425098926
aF0.912832108535896
aF0.9199366730747484
aF0.9186927513287346
aF0.9198326549072817
aF0.9193894855850763
aF0.9114754098360656
asg5
(lp23
F0.9035818005808325
aF0.9142185663924794
aF0.9024767801857585
aF0.9103488598713702
aF0.915327322618581
aF0.9100136638688269
aF0.9138473642800944
aF0.9047342995169082
aF0.9055102832751262
aF0.9166014095536413
aF0.9015414258188824
aF0.9106656286492799
aF0.9128054740957967
aF0.9093036863662961
aF0.9164202641435049
aF0.9095154699357851
aF0.9121912975303802
aF0.9119312634251123
aF0.9144762652020401
aF0.8997498556859727
aF0.9149773666601063
aF0.9078743211792087
aF0.9136747106140867
aF0.9103837911552698
aF0.8995178399228544
asg7
(lp24
F0.12710566615620214
aF0.11179173047473201
aF0.12863705972434916
aF0.11737688185761674
aF0.1102322020923705
aF0.11766207248596222
aF0.11179173047473201
aF0.12582950484941297
aF0.1242663944883899
aF0.10870119928553203
aF0.130423685553854
aF0.11715160796324656
aF0.1138335885655947
aF0.11865271752998213
aF0.10819086501658587
aF0.11868300153139356
aF0.11434405308831036
aF0.11510974987238387
aF0.11125287063026282
aF0.13294207706047462
aF0.11026033690658499
aF0.12123532414497193
aF0.11230219499744767
aF0.11737688185761674
aF0.13294207706047462
asg9
(lp25
F0.9250743310208128
aF0.9307147841690758
aF0.92411333465425
aF0.928905240131252
aF0.9313921021140806
aF0.9279458598726114
aF0.9283644719752223
aF0.927036927036927
aF0.9259920634920634
aF0.9332270281044448
aF0.9251606524962926
aF0.9299413693729505
aF0.9299870530823623
aF0.927484333034915
aF0.9298929892989298
aF0.9288553259141495
aF0.9282936072603969
aF0.9296307355429482
aF0.9301675977653633
aF0.9238368072705719
aF0.9292424545272836
aF0.9286777105445888
aF0.9292626957996607
aF0.9291182026046326
aF0.9225595885669073
asg11
(lp26
F0.9476142131979696
aF0.9478172588832487
aF0.9468128298822575
aF0.9482338611449452
aF0.9480308566788469
aF0.9465989847715736
aF0.9433502538071066
aF0.950466910272026
aF0.9474218432805521
aF0.950466910272026
aF0.9500507614213198
aF0.9500507614213198
aF0.9478278522127487
aF0.9464068209500609
aF0.9437677628907836
aF0.9490355329949238
aF0.9449746192893401
aF0.9480308566788469
aF0.9464068209500609
aF0.9492488834754365
aF0.9439593908629441
aF0.9504568527918782
aF0.9453917986195697
aF0.9486398700771417
aF0.9468128298822575
assS'log_reg'
p27
(dp28
g3
(lp29
F0.9205020920502092
aF0.9229899355422369
aF0.9228855721393034
aF0.9199547767100057
aF0.9235726399095534
aF0.9226506841569603
aF0.9190320027140111
aF0.9192672998643148
aF0.9222159412097231
aF0.920520067834935
aF0.9215198462060387
aF0.9191450865091032
aF0.9173450927182271
aF0.9211984171848502
aF0.9221028829847372
aF0.9224245165667759
aF0.92106751102567
aF0.920737222976029
aF0.9166760881854155
aF0.9223289994347089
aF0.9237815221078819
aF0.9223114327716838
aF0.9183627317955676
aF0.916223855285472
aF0.9215375918598078
asg5
(lp30
F0.9152242328874902
aF0.9196993670886076
aF0.9183753943217665
aF0.9202869669190913
aF0.9192975532754538
aF0.9201505845056469
aF0.9093561563898074
aF0.9132653061224489
aF0.9187747035573123
aF0.9168805528134255
aF0.9134258354504593
aF0.9081039162466072
aF0.9231389953600968
aF0.9194604245189446
aF0.9202539178734378
aF0.9171422948238536
aF0.9204296797294609
aF0.9219093269422808
aF0.9115739831008056
aF0.9140457120531353
aF0.9211412720427977
aF0.9182787208843269
aF0.9187250996015937
aF0.9067055393586005
aF0.917192429022082
asg7
(lp31
F0.11000510464522716
aF0.10362429811128127
aF0.10566615620214395
aF0.10206685378923194
aF0.10436335799948966
aF0.10285860132720775
aF0.11893823379275141
aF0.11281265952016335
aF0.10487369226843582
aF0.10742536361316662
aF0.11306789178152118
aF0.12098009188361408
aF0.09724349157733538
aF0.10359785659607043
aF0.1025771880581781
aF0.1074527820316488
aF0.10209290454313426
aF0.09979581419091373
aF0.11482521051288594
aF0.11227353916815515
aF0.10158244002041858
aF0.10566615620214395
aF0.10413476263399694
aF0.12248022454707834
aF0.10717019647869354
asg9
(lp32
F0.9297632131082026
aF0.931770363691013
aF0.9317863572714543
aF0.9288012872083669
aF0.9323594156493896
aF0.9314079422382672
aF0.9288694615537453
aF0.9287567351825983
aF0.9311035449629481
aF0.9296366730057052
aF0.9308902609042023
aF0.9290885649112367
aF0.9260346048770617
aF0.9300692284538978
aF0.9308718771947427
aF0.9314411353188087
aF0.9298633440514469
aF0.9294271619853015
aF0.9264103844233649
aF0.9316077650572424
aF0.9324107501002807
aF0.9312381143028726
aF0.9274080032173739
aF0.926422400953232
aF0.9305861172234446
asg11
(lp33
F0.9447715736040609
aF0.9441624365482234
aF0.9455948030856679
aF0.9374746244417377
aF0.9457978075517661
aF0.9429441624365482
aF0.949238578680203
aF0.9447827852212749
aF0.9437677628907836
aF0.9427527405602923
aF0.9490355329949238
aF0.9510659898477157
aF0.928948436865611
aF0.940925700365408
aF0.941737718229801
aF0.9461928934010152
aF0.939492385786802
aF0.9370686155095412
aF0.941737718229801
aF0.9498578968737312
aF0.9439593908629441
aF0.9445685279187818
aF0.9362565976451482
aF0.9470158343483557
aF0.9443767762890783
assS'naive_bayes'
p34
(dp35
g3
(lp36
F0.5906366617663689
aF0.5931245052583964
aF0.5914744459520579
aF0.592312040700961
aF0.5891464104013567
aF0.5887142372498021
aF0.5906366617663689
aF0.5915875169606513
aF0.5860938383267382
aF0.5997738835500283
aF0.5855478909872215
aF0.5870179803234197
aF0.5990502035278155
aF0.5958168456755228
aF0.5882419446014697
aF0.5860002261675902
aF0.5850955558068529
aF0.5983717774762551
aF0.596608253250424
aF0.5901639344262295
aF0.5887142372498021
aF0.5910889969467376
aF0.5917005879692447
aF0.5911814584511024
aF0.5914075749010741
asg5
(lp37
F1.0
aF1.0
aF1.0
aF1.0
aF1.0
aF1.0
aF1.0
aF1.0
aF1.0
aF1.0
aF1.0
aF1.0
aF1.0
aF1.0
aF1.0
aF1.0
aF1.0
aF1.0
aF1.0
aF1.0
aF1.0
aF1.0
aF1.0
aF1.0
aF1.0
asg7
(lp38
F0.0
aF0.0
aF0.0
aF0.0
aF0.0
aF0.0
aF0.0
aF0.0
aF0.0
aF0.0
aF0.0
aF0.0
aF0.0
aF0.0
aF0.0
aF0.0
aF0.0
aF0.0
aF0.0
aF0.0
aF0.0
aF0.0
aF0.0
aF0.0
aF0.0
asg9
(lp39
F0.4189406099518459
aF0.42450415866922586
aF0.42090078538227277
aF0.42267050912584053
aF0.41556770665808945
aF0.41461451794624177
aF0.4189406099518459
aF0.4211538461538461
aF0.40865772896139557
aF0.43916349809885935
aF0.4074373484236055
aF0.4107776702161988
aF0.43767840152235965
aF0.4304604110243747
aF0.41352657004830917
aF0.40846663435126834
aF0.40640673030254
aF0.4361904761904762
aF0.43220878421387654
aF0.4178577163963385
aF0.41461451794624177
aF0.41995508501764517
aF0.42140682582919403
aF0.4201411161000641
aF0.42064764347547284
asg11
(lp40
F0.2649746192893401
aF0.26944162436548225
aF0.2665448639870077
aF0.2679658952496955
aF0.2622817701989444
aF0.2615228426395939
aF0.2649746192893401
aF0.26674786845310594
aF0.2568006496142915
aF0.28136419001218027
aF0.25583756345177666
aF0.2584771573604061
aF0.2801461632155907
aF0.2742590336987414
aF0.26065773447015833
aF0.2566497461928934
aF0.2550253807106599
aF0.2789281364190012
aF0.27568006496142916
aF0.26410881039382866
aF0.2615228426395939
aF0.26578680203045685
aF0.2669508729192042
aF0.26593585058871294
aF0.26634185952090944
assS'ran_forest'
p41
(dp42
g3
(lp43
F0.9336198122809002
aF0.938369331674771
aF0.9300090456806874
aF0.9349915206331261
aF0.9356698699830412
aF0.9361076557729278
aF0.9352029854121904
aF0.9341926729986432
aF0.9357829282080271
aF0.9372526851328434
aF0.9385954992649553
aF0.9352029854121904
aF0.9379240162822252
aF0.9366873940079141
aF0.9340870548332392
aF0.9375777451091258
aF0.9373515775189415
aF0.9269561284486658
aF0.9260599208592425
aF0.9370265686828717
aF0.9375777451091258
aF0.9354291530023747
aF0.9380370872908186
aF0.9361221028829847
aF0.9346523459581685
asg5
(lp44
F0.9362429605792437
aF0.940112540192926
aF0.9323429030315198
aF0.9274906661426606
aF0.9412598744176626
aF0.9423701298701299
aF0.9348521183053558
aF0.9363198071514665
aF0.940558026688233
aF0.9361404909199761
aF0.938550840672538
aF0.9390637610976594
aF0.9422105475853708
aF0.9442409442409443
aF0.9331737482545382
aF0.9428802916751063
aF0.9387673158000401
aF0.9266347687400319
aF0.9272
aF0.9408678102926337
aF0.94722847208018
aF0.9314308363059849
aF0.9407974224728152
aF0.938820688267257
aF0.9365461847389558
asg7
(lp45
F0.0809086268504339
aF0.07605921388463502
aF0.0860132720775906
aF0.09415667262056647
aF0.07399846899719316
aF0.07248596222562532
aF0.08320571720265442
aF0.0809086268504339
aF0.07501913753508548
aF0.08165348303138556
aF0.07835630423685554
aF0.07708014293006636
aF0.07299642674834099
aF0.06991579484562388
aF0.08548099004848175
aF0.07197549770290965
aF0.07784583971413987
aF0.09392547217968351
aF0.09288083694820107
aF0.0747639704006124
aF0.06584992343032159
aF0.08831036242981113
aF0.07503828483920368
aF0.07757080887981628
aF0.08063281449349324
asg9
(lp46
F0.9406890977063757
aF0.9449550550449448
aF0.9375189260119108
aF0.9425861208187719
aF0.9423096420967252
aF0.9426570587638283
aF0.9422902608520496
aF0.9412358642972537
aF0.9424635332252836
aF0.9441481332394083
aF0.9452676141517992
aF0.9420099180244915
aF0.9444050632911392
aF0.9430894308943091
aF0.9413421873427911
aF0.9440275806124518
aF0.944074298405007
aF0.9350231341782338
aF0.9341124319967762
aF0.9436291873292176
aF0.9437538210719381
aF0.9427339283923377
aF0.9446016983420946
aF0.942900454775139
aF0.9416515243286897
asg11
(lp47
F0.9451776649746193
aF0.9498477157360407
aF0.9427527405602923
aF0.9581810799837597
aF0.9433617539585871
aF0.9429441624365482
aF0.9498477157360407
aF0.9462038164839627
aF0.9443767762890783
aF0.9522939504669102
aF0.9520812182741116
aF0.9449746192893401
aF0.9466098254161591
aF0.9419407226958993
aF0.949654892407633
aF0.9451776649746193
aF0.9494416243654822
aF0.9435647584246853
aF0.9411287048315063
aF0.9464068209500609
aF0.9403045685279188
aF0.9543147208121827
aF0.9484368656110435
aF0.9470158343483557
aF0.9468128298822575
assS'dec_tree'
p48
(dp49
g3
(lp50
F0.9274002035508312
aF0.9281917901164763
aF0.9327227498869289
aF0.9329564725833804
aF0.9330695308083663
aF0.927965622526292
aF0.9304534660183196
aF0.9262777023971054
aF0.9329564725833804
aF0.9329564725833804
aF0.9371254099287573
aF0.9318104715594255
aF0.9335142469470827
aF0.9278688524590164
aF0.9314867156585641
aF0.9314712201741491
aF0.9357684043876513
aF0.927860696517413
aF0.9311475409836065
aF0.9373657433578293
aF0.9327151419201628
aF0.9297749632477667
aF0.9324966078697422
aF0.928999434708875
aF0.9312605992085924
asg5
(lp51
F0.9283856771354271
aF0.9411764705882353
aF0.9285572926974075
aF0.9540976734437225
aF0.9420644634842922
aF0.9288
aF0.9355295068714632
aF0.9280849358974359
aF0.936882435974995
aF0.946977511863008
aF0.9326599326599326
aF0.9451998351874743
aF0.9439214081047892
aF0.9418796372629843
aF0.9431678292983176
aF0.9444330109075941
aF0.9368357730098256
aF0.9370158988993069
aF0.9425876563461144
aF0.9434077079107505
aF0.9438294382943829
aF0.9381107491856677
aF0.9295495137924191
aF0.9475218658892128
aF0.9345813204508857
asg7
(lp52
F0.09137314956610515
aF0.07299642674834099
aF0.09213884635017866
aF0.05588160244960449
aF0.07246746619035468
aF0.09086268504338949
aF0.08141909137314957
aF0.091628381827463
aF0.079867313090074
aF0.06557795355958153
aF0.08677896886166411
aF0.06789178152118427
aF0.06993363961204696
aF0.07195713192140853
aF0.07068129624904312
aF0.06891271056661562
aF0.08039816232771822
aF0.07886676875957122
aF0.07144679765246237
aF0.07119163051798928
aF0.06993363961204696
aF0.07759060745278203
aF0.09060745278203165
aF0.06430211788721613
aF0.08292931870375096
asg9
(lp53
F0.9353083434099154
aF0.9351180136916317
aF0.940374787052811
aF0.9388470661029185
aF0.9397639397639398
aF0.9358186397984886
aF0.937708903068976
aF0.9342609397055859
aF0.9400101163378857
aF0.9393226235546915
aF0.944255063164227
aF0.9383372532978833
aF0.940073379535263
aF0.9347514829208426
aF0.9381632653061225
aF0.9380621422730989
aF0.9426957223567393
aF0.9351098454027664
aF0.9378761603590737
aF0.9437905844155845
aF0.9393042946036927
aF0.9368709972552606
aF0.9400903161063723
aF0.9354440789473685
aF0.9385486153224177
asg11
(lp54
F0.9423350253807107
aF0.9291370558375635
aF0.9524969549330086
aF0.9240763296792529
aF0.9374746244417377
aF0.9429441624365482
aF0.9398984771573604
aF0.9405196914332116
aF0.9431587494924888
aF0.9317904993909866
aF0.9561421319796954
aF0.9315736040609137
aF0.9362565976451482
aF0.9277304100690216
aF0.9332115306536743
aF0.9317766497461929
aF0.9486294416243655
aF0.9332115306536743
aF0.9332115306536743
aF0.9441737718229801
aF0.9348223350253807
aF0.9356345177664974
aF0.9508729192042225
aF0.9236703207470565
aF0.9425497360941941
ass.