(dp0
S'knn'
p1
(dp2
S'acc'
p3
(lp4
F0.9090806287459007
aF0.9102114666968223
aF0.9012890094979648
aF0.9091011871113623
aF0.9088750706613906
aF0.9094198801311772
aF0.9042180255569376
aF0.9029850746268657
aF0.9124929338609384
aF0.8989259468626343
aF0.8987900033925138
aF0.900260092728712
aF0.9082994120307553
aF0.9102317693612211
aF0.9023176936122103
aF0.9015040144747257
aF0.9017301820649101
aF0.91078697421981
aF0.9051441492368569
aF0.9109101187111363
aF0.9003731765238041
aF0.8978853330317765
aF0.89880144730891
aF0.9057094403617864
aF0.907631430186546
asS'pre'
p5
(lp6
F0.9377522838325898
aF0.9305816135084428
aF0.9305289993626513
aF0.9291961682632237
aF0.9250928600907965
aF0.9241053064582476
aF0.9296249473240624
aF0.930567315834039
aF0.9341279799247177
aF0.9386422976501305
aF0.9301878736122972
aF0.9245956731779038
aF0.9444804493411104
aF0.921116999592336
aF0.9290240811153359
aF0.9366652305040931
aF0.9240903387703889
aF0.9299521928912908
aF0.9297581493165089
aF0.9229354047424366
aF0.9240771812080537
aF0.9326592082616179
aF0.9244051379237734
aF0.920814479638009
aF0.9335302806499262
asS'pf'
p7
(lp8
F0.07478305257784584
aF0.08499234303215926
aF0.08346094946401225
aF0.08675682572084716
aF0.092625669813728
aF0.09418070444104135
aF0.0852475752935171
aF0.08371618172537008
aF0.08037764735902016
aF0.07195713192140853
aF0.08346094946401225
aF0.091628381827463
aF0.06559469116896376
aF0.09874968104108191
aF0.08573615718295484
aF0.07503828483920368
aF0.09264931087289434
aF0.0860132720775906
aF0.08522582291400868
aF0.09619800969635112
aF0.09239407861153649
aF0.07988769780500256
aF0.091628381827463
aF0.09823934677213575
aF0.08037764735902016
asS'f1'
p9
(lp10
F0.9165282392026579
aF0.918329561818556
aF0.9093740267829336
aF0.9173519736842105
aF0.9175194433074089
aF0.918156738530704
aF0.9124185709854203
aF0.9110880829015543
aF0.9202719406674907
aF0.9061121613106491
aF0.9068581538141326
aF0.9089407392112326
aF0.9151229722658294
aF0.9192432872253865
aF0.9105590062111801
aF0.908957876032194
aF0.9104769753785927
aF0.9189688815857041
aF0.9133353992356162
aF0.9197392544306375
aF0.9091096667698338
aF0.9056722030711375
aF0.9074935400516796
aF0.9147936248467511
aF0.9154681841696845
asS'rec'
p11
(lp12
F0.896243654822335
aF0.9063959390862945
aF0.8891595615103532
aF0.90580592773041
aF0.9100690215184734
aF0.9122842639593909
aF0.8958375634517767
aF0.8924076329679252
aF0.9068209500609014
aF0.8757612667478685
aF0.8846700507614214
aF0.8938071065989848
aF0.8875355257815672
aF0.9173771822980106
aF0.8928136419001218
aF0.8828426395939086
aF0.8972588832487309
aF0.9082419813235891
aF0.8974827446203817
aF0.9165651644336176
aF0.8946192893401015
aF0.8802030456852792
aF0.8911896061713358
aF0.9088509947218839
aF0.8980917580186764
assS'rbf_svm'
p13
(dp14
g3
(lp15
F0.9320366391496099
aF0.9368992423385729
aF0.9361148801447309
aF0.9368004522329
aF0.9360090446579988
aF0.9359945719778355
aF0.9340721474612688
aF0.9320443238353686
aF0.9392877331825891
aF0.9336348219332956
aF0.9346375664367296
aF0.934185231256361
aF0.9357756671189507
aF0.9335217637083097
aF0.9335217637083097
aF0.9378039126993102
aF0.9354291530023747
aF0.9323835368611488
aF0.9351045788581119
aF0.9330695308083663
aF0.9418749293226281
aF0.9329413095103471
aF0.9308005427408412
aF0.9311475409836065
aF0.937591859807801
asg5
(lp16
F0.9257581725088617
aF0.9287257019438445
aF0.9322101090188305
aF0.9277179236043095
aF0.9261141516810008
aF0.9249366348216026
aF0.924853228962818
aF0.9312063808574277
aF0.9351576442593694
aF0.9269828773863412
aF0.9254257193188491
aF0.9275447922819453
aF0.9270874166993336
aF0.9236328125
aF0.9305279872965463
aF0.9303560889238639
aF0.9292192429022083
aF0.9256490952006294
aF0.9254986312084474
aF0.9262391817466562
aF0.9376860488192101
aF0.9225516972298088
aF0.9229411764705883
aF0.9239835002946376
aF0.9317015396762732
asg7
(lp17
F0.09622256253190403
aF0.09264931087289434
aF0.08728943338437979
aF0.09415667262056647
aF0.09645317683082419
aF0.09826442062276672
aF0.09800918836140889
aF0.08805513016845329
aF0.08343965297269712
aF0.09466700688951263
aF0.09724349157733538
aF0.09392547217968351
aF0.09494640122511486
aF0.09977034957897422
aF0.08930849706557796
aF0.0903522205206738
aF0.091628381827463
aF0.09647779479326186
aF0.09721867823424343
aF0.09568767542740494
aF0.08014293006636039
aF0.10132720775906075
aF0.1003062787136294
aF0.09874968104108191
aF0.08828782852768563
asg9
(lp18
F0.9399180245926223
aF0.9443002595328408
aF0.9433356734530137
aF0.9442727544611703
aF0.9436367257518422
aF0.9437039984085935
aF0.9419033383158943
aF0.9395433055024646
aF0.9461330123382486
aF0.94134106125712
aF0.9423958540960733
aF0.9418232706917233
aF0.9433585959313923
aF0.9414692414891499
aF0.9409875551987154
aF0.9450439648281375
aF0.9428828648594578
aF0.9402597402597402
aF0.942828685258964
aF0.9408591408591409
aF0.9484142914492172
aF0.9410008954332902
aF0.9389587073608617
aF0.9392033542976939
aF0.944755804643715
asg11
(lp19
F0.9545177664974619
aF0.9604060913705583
aF0.9547300040600893
aF0.9614291514413317
aF0.9618351603735282
aF0.9632487309644671
aF0.9595939086294416
aF0.9480308566788469
aF0.9573690621193667
aF0.9561510353227771
aF0.96
aF0.9565482233502538
aF0.9602111246447422
aF0.9600081201786439
aF0.9516849370686155
aF0.9602030456852791
aF0.9569543147208122
aF0.9553390174583841
aF0.9608201380430369
aF0.9559480308566789
aF0.9593908629441624
aF0.9602030456852791
aF0.9555420219244823
aF0.9549330085261876
aF0.9581810799837597
assS'lin_svm'
p20
(dp21
g3
(lp22
F0.9226506841569603
aF0.9280787063213841
aF0.9270691994572592
aF0.9296777840587903
aF0.9250423968343697
aF0.9261562818048173
aF0.9303403822232275
aF0.9311397557666214
aF0.9228942905596382
aF0.9271905031091012
aF0.9260431980097252
aF0.9276263711410155
aF0.9283129805517866
aF0.9284341435839457
aF0.9241379310344827
aF0.9264955331900938
aF0.9290964604772136
aF0.9272953414744459
aF0.9230073487846241
aF0.9265121537591859
aF0.9232161031324211
aF0.9261562818048173
aF0.9274084124830394
aF0.9292255511588468
aF0.9265121537591859
asg5
(lp23
F0.9155398785028415
aF0.9305360369403735
aF0.9196236032150559
aF0.9298841390331603
aF0.9240103441416352
aF0.9239777689559349
aF0.9287562189054727
aF0.9236506378802748
aF0.9167321288295365
aF0.9249702262802699
aF0.9209540705696826
aF0.928928928928929
aF0.9276604224790753
aF0.9263157894736842
aF0.9165850793029175
aF0.9195289499509323
aF0.9268970997218912
aF0.9297611880393337
aF0.9167484783035539
aF0.9284569138276553
aF0.9208961141950832
aF0.920969649191959
aF0.9261838440111421
aF0.9274353876739563
aF0.9198743126472899
asg7
(lp24
F0.11000510464522716
aF0.08831036242981113
aF0.10464522715671261
aF0.08956366420005103
aF0.0974738453687165
aF0.09775395610005104
aF0.09137314956610515
aF0.09928534966819806
aF0.10819086501658587
aF0.09645317683082419
aF0.10234813680449209
aF0.09060745278203165
aF0.09264931087289434
aF0.09466700688951263
aF0.10870119928553203
aF0.10464522715671261
aF0.09392547217968351
aF0.08933129147524248
aF0.10819086501658587
aF0.09109466700688951
aF0.10183767228177641
aF0.10234813680449209
aF0.09469116896375702
aF0.09313600408267415
aF0.10410819086501659
asg9
(lp25
F0.9317909852413243
aF0.9357964869775893
aF0.9356736810611349
aF0.9373741441804271
aF0.9333869185170302
aF0.9344574927230753
aF0.9380904522613065
aF0.9392276219938129
aF0.9319225394290277
aF0.9353673223604977
aF0.9345869173834767
aF0.935483870967742
aF0.9362429605792438
aF0.9364521634374059
aF0.9331207016844414
aF0.935129740518962
aF0.9370418716738629
aF0.9351094964173984
aF0.9320291446252121
aF0.9344493747478824
aF0.9318888554519008
aF0.9346934693469346
aF0.9354903536977492
aF0.9371233427079149
aF0.935116789778399
asg11
(lp26
F0.9486294416243655
aF0.9411167512690355
aF0.9522939504669102
aF0.9449857896873731
aF0.9429557450263906
aF0.9451776649746193
aF0.9476142131979696
aF0.9553390174583841
aF0.9476248477466505
aF0.9460008120178643
aF0.9486294416243655
aF0.9421319796954315
aF0.9449857896873731
aF0.9468128298822575
aF0.9502639058059277
aF0.9512690355329949
aF0.9474111675126904
aF0.9405196914332116
aF0.9478278522127487
aF0.9405196914332116
aF0.9431472081218274
aF0.9488324873096446
aF0.9449857896873731
aF0.9470158343483557
aF0.9508729192042225
assS'log_reg'
p27
(dp28
g3
(lp29
F0.9276263711410155
aF0.9235553545176977
aF0.9272953414744459
aF0.9263990955342001
aF0.9228942905596382
aF0.9247992762637114
aF0.926608616985186
aF0.927860696517413
aF0.9228942905596382
aF0.9269643866591295
aF0.9275132873459233
aF0.9212936786158543
aF0.9240162822252375
aF0.9304691916336914
aF0.9253815715093273
aF0.9244600248784349
aF0.9284179577066607
aF0.923337856173677
aF0.9225551158846806
aF0.9292255511588468
aF0.9237815221078819
aF0.9243469410833428
aF0.9277476255088195
aF0.9247032221594121
aF0.9268513284341435
asg5
(lp30
F0.9251835681682874
aF0.9260076198115099
aF0.9320153318539439
aF0.9198585739540366
aF0.9193675889328063
aF0.9226190476190477
aF0.9218626677190213
aF0.9207221350078493
aF0.9297286350749291
aF0.9323232323232323
aF0.9309859154929577
aF0.9233233233233233
aF0.9228628230616303
aF0.9238938053097345
aF0.9213749506124062
aF0.9194088669950738
aF0.9274900398406375
aF0.9263348052990766
aF0.9193197547953332
aF0.9306891025641025
aF0.9231534939279316
aF0.925259792166267
aF0.9260584376863447
aF0.9226190476190477
aF0.9293598233995585
asg7
(lp31
F0.09622256253190403
aF0.09418070444104135
aF0.0860132720775906
aF0.10410819086501659
aF0.10410819086501659
aF0.0995405819295559
aF0.10107197549770292
aF0.1031138335885656
aF0.08854299566215872
aF0.08548099004848175
aF0.08754466564573762
aF0.09775395610005104
aF0.09903011740684023
aF0.09874968104108191
aF0.10155651952028578
aF0.10438999489535478
aF0.09290454313425217
aF0.09367023991832568
aF0.10410819086501659
aF0.08828782852768563
aF0.09851965288412455
aF0.09545686574783052
aF0.09494640122511486
aF0.09951518244450115
aF0.08981883133452412
asg9
(lp32
F0.9357687675632276
aF0.9317998385794996
aF0.9349387837701103
aF0.9350104821802936
aF0.9317043861405968
aF0.9332664325137983
aF0.9350545381767236
aF0.9363400518858511
aF0.9308596918085968
aF0.9345889023896313
aF0.9352198079838303
aF0.9298387096774193
aF0.9325030132583366
aF0.9385675756667665
aF0.9339207048458149
aF0.9332
aF0.9363499245852187
aF0.931570448122729
aF0.9313833516978863
aF0.9368824359749949
aF0.9322476879774829
aF0.9326216134555343
aF0.9358240433865621
aF0.9331727874774233
aF0.9347058229892017
asg11
(lp33
F0.9465989847715736
aF0.9376649746192893
aF0.9378806333739342
aF0.9506699147381242
aF0.9443767762890783
aF0.9441624365482234
aF0.9486294416243655
aF0.9524969549330086
aF0.9319935038570849
aF0.9368656110434429
aF0.939492385786802
aF0.9364467005076142
aF0.9423467316280958
aF0.953714981729598
aF0.9468128298822575
aF0.9474111675126904
aF0.9453807106598985
aF0.9368656110434429
aF0.9437677628907836
aF0.9431587494924888
aF0.941522842639594
aF0.9401015228426396
aF0.9457978075517661
aF0.9439707673568819
aF0.940113682501015
assS'naive_bayes'
p34
(dp35
g3
(lp36
F0.6113309962682347
aF0.5986656112179125
aF0.6027815468113975
aF0.6296212549462974
aF0.596608253250424
aF0.615628180481737
aF0.6069207282596404
aF0.6047037539574853
aF0.6134539287733183
aF0.5954776710005653
aF0.6185683591541332
aF0.6097478231369444
aF0.6058344640434192
aF0.6037309214245337
aF0.6003391746749576
aF0.5991179463982811
aF0.610087074522221
aF0.5985979194934419
aF0.6087054833239118
aF0.6281514980214811
aF0.6192468619246861
aF0.6107655772927739
aF0.5998417005879693
aF0.5976257772752968
aF0.6157150932730356
asg5
(lp37
F0.9953395472703063
aF0.9971098265895953
aF0.9950946040644709
aF0.993421052631579
aF0.9978005865102639
aF0.9948119325551232
aF1.0
aF0.9958391123439667
aF0.9928057553956835
aF1.0
aF0.9961636828644501
aF0.9959623149394348
aF0.996551724137931
aF0.9965059399021663
aF0.9978525411596277
aF0.9971181556195965
aF0.9979770734996628
aF0.9978292329956585
aF0.9945982444294396
aF0.9951603145795523
aF0.9942893401015228
aF0.9940039973351099
aF1.0
aF0.9970909090909091
aF0.9954574951330305
asg7
(lp38
F0.0017866258295048494
aF0.0010209290454313426
aF0.0017866258295048494
aF0.0028068384792038787
aF0.0007655014034192396
aF0.002041858090862685
aF0.0
aF0.0015313935681470138
aF0.0028068384792038787
aF0.0
aF0.0015313935681470138
aF0.0015313935681470138
aF0.001276161306789178
aF0.0012758356723653994
aF0.0007655014034192396
aF0.0010209290454313426
aF0.0007656967840735069
aF0.0007656967840735069
aF0.002041337075784639
aF0.002041337075784639
aF0.002297090352220521
aF0.002297090352220521
aF0.0
aF0.0010206685378923194
aF0.001786169941311559
asg9
(lp39
F0.4652248327368912
aF0.4374702805515929
aF0.44703289784353856
aF0.5034859048196424
aF0.4327503974562798
aF0.47440853564249275
aF0.4546595544399122
aF0.4510050251256281
aF0.4703330751355538
aF0.42970991393050684
aF0.480197256896286
aF0.46170644205272193
aF0.4532622333751568
aF0.4486392952650622
aF0.4409299383204175
aF0.43846031997465545
aF0.46192259675405745
aF0.4372225745085605
aF0.45980958326830024
aF0.5000759993920049
aF0.48207968004922325
aF0.46436352318705254
aF0.43941073974338674
aF0.4351690207903507
aF0.4744085356424927
asg11
(lp40
F0.3035532994923858
aF0.2802030456852792
aF0.28826634185952094
aF0.33719041818920015
aF0.27628907835972394
aF0.31147208121827413
aF0.29421319796954315
aF0.291514413317093
aF0.3081607795371498
aF0.2736500203004466
aF0.3163451776649746
aF0.300507614213198
aF0.29334145351197727
aF0.28948436865611044
aF0.2829882257409663
aF0.2810152284263959
aF0.300507614213198
aF0.2799431587494925
aF0.2990255785627284
aF0.3339423467316281
aF0.31817258883248734
aF0.3029441624365482
aF0.28156719447827855
aF0.27831912302070644
aF0.3114088509947219
assS'ran_forest'
p41
(dp42
g3
(lp43
F0.9493384597987109
aF0.9442496890195635
aF0.9507010402532791
aF0.9513849632560769
aF0.9472018089315998
aF0.9532963926269366
aF0.9451543593803008
aF0.9479873360470376
aF0.9466365178066705
aF0.9431317128321085
aF0.9436842700441027
aF0.945267443175393
aF0.9508141112618724
aF0.9431317128321085
aF0.946975692481628
aF0.9478683704625127
aF0.9520524708809228
aF0.9423337856173677
aF0.9450537026568683
aF0.9430186546071226
aF0.9504692977496325
aF0.9443627728146556
aF0.9430122116689281
aF0.9459581684567552
aF0.9483323911814584
asg5
(lp44
F0.9454726368159204
aF0.9498578968737312
aF0.95778955954323
aF0.9570963806425377
aF0.9534268863127924
aF0.9542891663310511
aF0.950487012987013
aF0.9594650205761317
aF0.9554192229038855
aF0.954947541658095
aF0.9637544521265452
aF0.9443666199719832
aF0.9482930724695549
aF0.9508664627930683
aF0.9470411233701104
aF0.9583162217659138
aF0.9540044381682469
aF0.9466019417475728
aF0.9534313725490197
aF0.9454069298952458
aF0.9547942428542469
aF0.954293912687026
aF0.9501221498371335
aF0.9512987012987013
aF0.9515053546170944
asg7
(lp45
F0.06993363961204696
aF0.0630423685553854
aF0.052833078101071976
aF0.053840265373819855
aF0.05843327379433529
aF0.05793772332822869
aF0.062276671771311895
aF0.05028075548749362
aF0.05562643531513141
aF0.05588160244960449
aF0.04415518121490557
aF0.0709545686574783
aF0.06610515569167943
aF0.06149527940801225
aF0.06736412350089309
aF0.05181214905564063
aF0.05819295558958652
aF0.06738131699846861
aF0.05817810665986221
aF0.06915029344220465
aF0.05691679428279735
aF0.05691679428279735
aF0.06253190403266973
aF0.06124011227353917
aF0.06124011227353917
asg9
(lp46
F0.9549748743718594
aF0.9499543193584408
aF0.9556459816887081
aF0.9563185696871191
aF0.9525551153103728
aF0.9582448690728945
aF0.9507764132751446
aF0.952994073165747
aF0.9519152404237979
aF0.9486052927352611
aF0.9486492060218602
aF0.951219512195122
aF0.9562154001006543
aF0.9488353168548469
aF0.9526788416910503
aF0.9529351710056152
aF0.9570937057275855
aF0.9483282674772037
aF0.950519242516799
aF0.9490394337714863
aF0.9555690809494826
aF0.9498164014687883
aF0.9487700752185404
aF0.9514917799878222
aF0.9537215189873419
asg11
(lp47
F0.9646700507614213
aF0.9500507614213198
aF0.9535119772634998
aF0.9555420219244823
aF0.9516849370686155
aF0.962233502538071
aF0.9510659898477157
aF0.9466098254161591
aF0.9484368656110435
aF0.9423467316280958
aF0.934010152284264
aF0.9581725888324873
aF0.9642712139667072
aF0.9468128298822575
aF0.9583840844498579
aF0.9476142131979696
aF0.9602030456852791
aF0.9500609013398295
aF0.9476248477466505
aF0.9526999593991068
aF0.9563451776649746
aF0.9453807106598985
aF0.9474218432805521
aF0.9516849370686155
aF0.9559480308566789
assS'dec_tree'
p48
(dp49
g3
(lp50
F0.9284179577066607
aF0.9262693655999096
aF0.9348710990502035
aF0.929903900508762
aF0.9185980780101752
aF0.9336198122809002
aF0.9255908628293565
aF0.9313658977838082
aF0.9304691916336914
aF0.9295647258338045
aF0.9320366391496099
aF0.9268347845753704
aF0.930461329715061
aF0.9352176370830978
aF0.9371396269078576
aF0.9373515775189415
aF0.9300011308379509
aF0.9283129805517866
aF0.9321650650084794
aF0.9382702091577162
aF0.9287572090919372
aF0.9349768178220061
aF0.9318181818181818
aF0.9245901639344263
aF0.9314867156585641
asg5
(lp51
F0.9377804977560179
aF0.9416994004548274
aF0.9495659363373294
aF0.9430041152263374
aF0.9284841075794621
aF0.9422920065252854
aF0.9356749030018379
aF0.9365271881948656
aF0.9387339710970893
aF0.9388129716500102
aF0.9487339144873391
aF0.928142514011209
aF0.9445246442565477
aF0.9419289340101523
aF0.9396378269617707
aF0.9340615690168819
aF0.9466804979253112
aF0.9356475842468535
aF0.9382090761750406
aF0.9447603574329814
aF0.9330510183504739
aF0.9523710482529119
aF0.9395973154362416
aF0.9309856304391824
aF0.930622009569378
asg7
(lp52
F0.07784583971413987
aF0.07197549770290965
aF0.062276671771311895
aF0.07068129624904312
aF0.08956366420005103
aF0.07223072996426748
aF0.08039816232771822
aF0.08014293006636039
aF0.07680530747639704
aF0.07655014034192396
aF0.0630423685553854
aF0.091628381827463
aF0.06865747830525779
aF0.07297780045930084
aF0.07655014034192396
aF0.08473711077080143
aF0.06559469116896376
aF0.0809086268504339
aF0.07782597601428937
aF0.06940546057667772
aF0.08473711077080143
aF0.05844818785094436
aF0.07580398162327719
aF0.08701199285532024
aF0.08879816279663179
asg9
(lp53
F0.9355856314236288
aF0.9332104077033395
aF0.9410077836952069
aF0.9366441855712242
aF0.9267846247712018
aF0.9402787669142333
aF0.9330075341071064
aF0.9385191937607618
aF0.9374936477284277
aF0.9366161359243056
aF0.9383146874679258
aF0.9347847999193629
aF0.937084398976982
aF0.9418333164145771
aF0.9438156831042845
aF0.9443775100401607
aF0.9364802462801437
aF0.9356475842468535
aF0.9391604137091868
aF0.9445685279187817
aF0.9362606232294618
aF0.9409226343367924
aF0.9387381895763487
aF0.9324009324009325
aF0.9390464695232348
asg11
(lp54
F0.9334010152284264
aF0.9248730964467005
aF0.9326025172553796
aF0.9303694681282988
aF0.9250913520097442
aF0.9382741116751269
aF0.9303553299492385
aF0.9405196914332116
aF0.9362565976451482
aF0.9344295574502639
aF0.9281218274111676
aF0.941522842639594
aF0.929760454730004
aF0.941737718229801
aF0.9480308566788469
aF0.9549238578680203
aF0.926497461928934
aF0.9356475842468535
aF0.940113682501015
aF0.9443767762890783
aF0.939492385786802
aF0.929746192893401
aF0.9378806333739342
aF0.9338205440519691
aF0.9476248477466505
ass.