(dp0
S'knn'
p1
(dp2
S'acc'
p3
(lp4
F0.884156050955414
aF0.882265127388535
aF0.8929246691213056
aF0.8788059701492538
aF0.891044776119403
aF0.8947054140127388
aF0.8912221337579618
aF0.8752114638272465
aF0.8880597014925373
aF0.8715422885572139
aF0.8919187898089171
aF0.8853503184713376
aF0.884267091252861
aF0.8858706467661691
aF0.881592039800995
aF0.8947054140127388
aF0.8910230891719745
aF0.869340232858991
aF0.8660696517412936
aF0.8746268656716418
aF0.8903264331210191
aF0.8898288216560509
aF0.8940193054035227
aF0.871044776119403
aF0.8826865671641791
asS'pre'
p5
(lp6
F0.8721621621621621
aF0.8277018931224539
aF0.8753301637612255
aF0.8247174801635009
aF0.8574683544303797
aF0.8926414058209775
aF0.8783819983927136
aF0.827433628318584
aF0.8417318982387475
aF0.8324898785425101
aF0.8563160543532964
aF0.8499493927125507
aF0.8534770336156018
aF0.8357558139534884
aF0.8424090338770389
aF0.8869047619047619
aF0.8646344613794885
aF0.82392439691619
aF0.8042090328682904
aF0.806831294714978
aF0.8638242894056848
aF0.8542979581547769
aF0.8950429243976737
aF0.8520805369127517
aF0.8406265539532571
asS'auc'
p7
(lp8
cnumpy.core.multiarray
scalar
p9
(cnumpy
dtype
p10
(S'f8'
p11
I0
I1
tp12
Rp13
(I3
S'<'
p14
NNNI-1
I-1
I0
tp15
bS'\xcc$\xea\xad\x8d\xf1\xeb?'
p16
tp17
Rp18
ag9
(g13
S'\xae\x04\x7f\xe6}:\xec?'
p19
tp20
Rp21
ag9
(g13
S'%]g\xc09M\xec?'
p22
tp23
Rp24
ag9
(g13
S'c\x90\x05O\xe2\x19\xec?'
p25
tp26
Rp27
ag9
(g13
S'W\xee\n\xe0\xd7[\xec?'
p28
tp29
Rp30
ag9
(g13
S'\xcc\xb3\x1apoA\xec?'
p31
tp32
Rp33
ag9
(g13
S'\xaa/\xa8\x88\x9c4\xec?'
p34
tp35
Rp36
ag9
(g13
S'\x0b\xe9\xf6\xf7\xed\xe9\xeb?'
p37
tp38
Rp39
ag9
(g13
S'\xc0\\,\xd5)\\\xec?'
p40
tp41
Rp42
ag9
(g13
S'5\xd9\xbe\x85R\xb4\xeb?'
p43
tp44
Rp45
ag9
(g13
S'\x0ec9\x1a\x11h\xec?'
p46
tp47
Rp48
ag9
(g13
S'\x85\xa1=\x1f^+\xec?'
p49
tp50
Rp51
ag9
(g13
S'\x06\xe1\xa8}\xa1\x17\xec?'
p52
tp53
Rp54
ag9
(g13
S'\xd0\xa5\xce\x01\xdcP\xec?'
p55
tp56
Rp57
ag9
(g13
S"L}\xe5'\x10\x11\xec?"
p58
tp59
Rp60
ag9
(g13
S'T.t\xef\x9eK\xec?'
p61
tp62
Rp63
ag9
(g13
S'\xff\xdd\x99s\xedL\xec?'
p64
tp65
Rp66
ag9
(g13
S'G}\x88b\x83\xae\xeb?'
p67
tp68
Rp69
ag9
(g13
S'\x13\xd8V.o\xb9\xeb?'
p70
tp71
Rp72
ag9
(g13
S'\x86\x89\xa7S\xb6\x16\xec?'
p73
tp74
Rp75
ag9
(g13
S'4\xcb\xb2\xc2\xbdF\xec?'
p76
tp77
Rp78
ag9
(g13
S'\xefv\xa3\xe1\xc0T\xec?'
p79
tp80
Rp81
ag9
(g13
S'\xa7\xd5\x1c\xb6\xa15\xec?'
p82
tp83
Rp84
ag9
(g13
S'K\xb0\xba{=\x85\xeb?'
p85
tp86
Rp87
ag9
(g13
S'\x05p\xa6Fv!\xec?'
p88
tp89
Rp90
asS'f1'
p91
(lp92
F0.8472039905487004
aF0.853788159683599
aF0.8603322949117341
aF0.8492201039861352
aF0.8608463591307662
aF0.86005291005291
aF0.8571428571428572
aF0.8429752066115701
aF0.8594979393031097
aF0.8359801804090967
aF0.8623922959959452
aF0.8536213468869124
aF0.8511836212412028
aF0.8574624083509382
aF0.8494433198380567
aF0.8610454426057264
aF0.8594171267171651
aF0.8346139312255952
aF0.834806087383407
aF0.8473097430925837
aF0.8585002568053416
aF0.8596068484464173
aF0.8585469517864257
aF0.8304552590266875
aF0.8515300340007556
asS'pf'
p93
(lp94
F0.07716150081566069
aF0.11729200652528549
aF0.07698580981895287
aF0.11890393084325558
aF0.09182841298320013
aF0.06378466557911909
aF0.07406199021207178
aF0.11450008155276464
aF0.1055292774425053
aF0.10797586038166694
aF0.0931484502446982
aF0.0967373572593801
aF0.09313325721741968
aF0.11058554885010602
aF0.1024302723862339
aF0.06818923327895596
aF0.08548123980424144
aF0.1154787147284293
aF0.1350513782417224
aF0.13651932800521938
aF0.08597063621533442
aF0.09429037520391517
aF0.06181699559615071
aF0.08987114663187082
aF0.10455064426684064
asS'rec'
p95
(lp96
F0.8236345074017356
aF0.8815722307299643
aF0.8458397141398672
aF0.875223271242664
aF0.8642510844603215
aF0.8297600816743236
aF0.836906584992343
aF0.8591117917304747
aF0.8780301097218678
aF0.8394998724164328
aF0.8685553854007146
aF0.8573251659009699
aF0.8489025012761613
aF0.8803266139321255
aF0.8565960704261291
aF0.8366513527309852
aF0.8542623787646758
aF0.8455844818785094
aF0.8678234243429447
aF0.8920643021178872
aF0.8532414497192445
aF0.864982133741705
aF0.8249106687085248
aF0.8099004848175555
aF0.862720081653483
assS'rbf_svm'
p97
(dp98
g3
(lp99
F0.8950039808917197
aF0.8960987261146497
aF0.8929246691213056
aF0.8999004975124378
aF0.8992039800995025
aF0.8954020700636943
aF0.8954020700636943
aF0.893024181510598
aF0.8941293532338308
aF0.8941293532338308
aF0.8988853503184714
aF0.8921178343949044
aF0.8928251567320131
aF0.8933333333333333
aF0.8961194029850746
aF0.9009753184713376
aF0.8932125796178344
aF0.896407602746542
aF0.898905472636816
aF0.8941293532338308
aF0.8965963375796179
aF0.8961982484076433
aF0.8957110160214947
aF0.8945273631840795
aF0.89681592039801
asg5
(lp100
F0.8927297668038409
aF0.9286992840095465
aF0.924179104477612
aF0.9026817804810616
aF0.9306461173681091
aF0.8821647560650493
aF0.9298350824587707
aF0.9394126738794436
aF0.8946640862593309
aF0.9267563527653214
aF0.8997245179063361
aF0.9043949771689498
aF0.9055095632315159
aF0.9136878814298169
aF0.9219254476078662
aF0.8934051144010767
aF0.9242469430360871
aF0.9310758166017381
aF0.8975623116954259
aF0.9340224992398906
aF0.9230091096091684
aF0.9160636758321273
aF0.9233038348082596
aF0.9410675717371182
aF0.9070621468926554
asg7
(lp101
g9
(g13
S'\xd5\nET\x92D\xec?'
p102
tp103
Rp104
ag9
(g13
S'!\x98\xd5\x04\xbb\x16\xec?'
p105
tp106
Rp107
ag9
(g13
S'\x13-\xac\x8a\xf6\xfa\xeb?'
p108
tp109
Rp110
ag9
(g13
S'*yMQLi\xec?'
p111
tp112
Rp113
ag9
(g13
S'\x0f\tHk|5\xec?'
p114
tp115
Rp116
ag9
(g13
S'\xa9\xbb\xb4\x1f\xfe[\xec?'
p117
tp118
Rp119
ag9
(g13
S'\\\xb6k\xbc\x86\r\xec?'
p120
tp121
Rp122
ag9
(g13
S'\xec\xf2WC\x1f\xe6\xeb?'
p123
tp124
Rp125
ag9
(g13
S'a{\x1e0\x9d7\xec?'
p126
tp127
Rp128
ag9
(g13
S'\x15\xb7\xa8\x9eT\x04\xec?'
p129
tp130
Rp131
ag9
(g13
S'\xb6\xfb\x11k(c\xec?'
p132
tp133
Rp134
ag9
(g13
S'\nnm\xe7 \x11\xec?'
p135
tp136
Rp137
ag9
(g13
S'@\x05\x8cA\xf9\x16\xec?'
p138
tp139
Rp140
ag9
(g13
S'F\x86\x8e\xde\x93\x0f\xec?'
p141
tp142
Rp143
ag9
(g13
S"\xa4\x01\\\x11'!\xec?"
p144
tp145
Rp146
ag9
(g13
S'\xd4\x98E\x06/\x85\xec?'
p147
tp148
Rp149
ag9
(g13
S'9\xe8\xa6X\x12\xfe\xeb?'
p150
tp151
Rp152
ag9
(g13
S'\xfb\x14Q)\x7f\x16\xec?'
p153
tp154
Rp155
ag9
(g13
S'\xbeCko$g\xec?'
p156
tp157
Rp158
ag9
(g13
S'\xe9J\xe3\xad\xc5\xf9\xeb?'
p159
tp160
Rp161
ag9
(g13
S'\xe6\xe6^_\xa2$\xec?'
p162
tp163
Rp164
ag9
(g13
S'\xec\xf1\x1a\xec\x03+\xec?'
p165
tp166
Rp167
ag9
(g13
S'>\x9d\t\xce\x7f\x1a\xec?'
p168
tp169
Rp170
ag9
(g13
S'Oc\xf0\r&\xf4\xeb?'
p171
tp172
Rp173
ag9
(g13
S'\x8a\xefo\x9e9@\xec?'
p174
tp175
Rp176
asg91
(lp177
F0.8605050905725241
aF0.8563961485557083
aF0.8519537699504678
aF0.8665074309978769
aF0.8610996846290965
aF0.8629547529012909
aF0.8550944436784779
aF0.8497134069621137
aF0.8588110403397027
aF0.85352422907489
aF0.8653948065712771
aF0.8539477229857182
aF0.8548713111440506
aF0.8543478260869565
aF0.8574938574938574
aF0.869644962662125
aF0.8524274515197361
aF0.856512749827705
aF0.8657859973579921
aF0.8523862375138734
aF0.8580794973364293
aF0.858537908585379
aF0.8565955117679256
aF0.8519553072625697
aF0.8609733208204854
asg93
(lp178
F0.06378466557911909
aF0.03898858075040783
aF0.041428804436470394
aF0.05741314630565976
aF0.03816669385092154
aF0.07210440456769984
aF0.03817292006525286
aF0.03196868373837873
aF0.062143206654705595
aF0.03996085467297342
aF0.059380097879282216
aF0.05464926590538336
aF0.05398793019083347
aF0.048442342195400424
aF0.043386070787799706
aF0.06460032626427406
aF0.04143556280587276
aF0.03751427173381178
aF0.061001467949763494
aF0.03539389985320503
aF0.04274061990212072
aF0.04730831973898858
aF0.04240743761213505
aF0.03115315609199152
aF0.05366171913227859
asg95
(lp179
F0.8305257784583971
aF0.7945380296069423
aF0.7901990811638591
aF0.8331206940546058
aF0.8012248022454708
aF0.844563552833078
aF0.7914752424706483
aF0.7756508422664625
aF0.8257208471548865
aF0.7910181168665475
aF0.8335885655946912
aF0.8088310362429811
aF0.8095967330270546
aF0.8022454707833631
aF0.8014799693799438
aF0.8471158754466565
aF0.7909647779479326
aF0.7930066360387953
aF0.8361826996682827
aF0.7838734371013013
aF0.8016845329249617
aF0.8078101071975498
aF0.7988769780500256
aF0.7782597601428936
aF0.8193416687930595
assS'lin_svm'
p180
(dp181
g3
(lp182
F0.8901273885350318
aF0.8896297770700637
aF0.8850631903672007
aF0.8933333333333333
aF0.8843781094527363
aF0.8745023885350318
aF0.887937898089172
aF0.8920290576176734
aF0.8887562189054726
aF0.8875621890547264
aF0.887937898089172
aF0.89171974522293
aF0.8665538859588019
aF0.8898507462686567
aF0.8888557213930348
aF0.8667396496815286
aF0.8861464968152867
aF0.8858592894815405
aF0.8892537313432836
aF0.8896517412935323
aF0.88953025477707
aF0.8968949044585988
aF0.8905363717782864
aF0.8666666666666667
aF0.8897512437810945
asg5
(lp183
F0.9008547008547009
aF0.9216451516061243
aF0.8815244407622204
aF0.8758912067599683
aF0.8877637130801688
aF0.864872287833013
aF0.8963657013060761
aF0.8732542819499342
aF0.9058243987250072
aF0.9062044858724148
aF0.9034682080924855
aF0.8866120218579235
aF0.9136436597110754
aF0.8942793045429052
aF0.8848901098901099
aF0.9142306456794089
aF0.9550524934383202
aF0.8908321579689704
aF0.8871412803532008
aF0.8928970917225951
aF0.9156305506216696
aF0.8796101159114857
aF0.8828804347826087
aF0.9129042587255843
aF0.9065663870407868
asg7
(lp184
g9
(g13
S'~\x0f\xdd\xc1\x1f\x01\xec?'
p185
tp186
Rp187
ag9
(g13
S'\xf0H=\xab\x13\xdb\xeb?'
p188
tp189
Rp190
ag9
(g13
S'\xce\xbb7\x11i\xea\xeb?'
p191
tp192
Rp193
ag9
(g13
S'\x18\xbe-.\xd0P\xec?'
p194
tp195
Rp196
ag9
(g13
S'\x1dW\x1a\xb4\xf9\xd7\xeb?'
p197
tp198
Rp199
ag9
(g13
S'\xfd|\x12oP\x93\xeb?'
p200
tp201
Rp202
ag9
(g13
S'\xbd3G\xa5\x89\xf0\xeb?'
p203
tp204
Rp205
ag9
(g13
S'\xd9\xbd\xa3~6G\xec?'
p206
tp207
Rp208
ag9
(g13
S'2\xbb\xa5\xf3\x0e\xea\xeb?'
p209
tp210
Rp211
ag9
(g13
S'\xe4/\xfa\x9ab\xdc\xeb?'
p212
tp213
Rp214
ag9
(g13
S'\xb9Q,\xda\xd7\xe4\xeb?'
p215
tp216
Rp217
ag9
(g13
S'e\xba\xfbL +\xec?'
p218
tp219
Rp220
ag9
(g13
S'=$\xf3\x81\x95\xeb\xea?'
p221
tp222
Rp223
ag9
(g13
S'\xbc\xcd\xc2\xe1)\t\xec?'
p224
tp225
Rp226
ag9
(g13
S'JS\xdb\xab\x8c\x0e\xec?'
p227
tp228
Rp229
ag9
(g13
S'\t\xa9\x86\x1d\xe4\xec\xea?'
p230
tp231
Rp232
ag9
(g13
S'\xd1\x1e9n\xb5\x87\xeb?'
p233
tp234
Rp235
ag9
(g13
S'\xd2\xc8\xe8\xd4\xec\xe2\xeb?'
p236
tp237
Rp238
ag9
(g13
S'\x15\xce}\x95\xf5\x0e\xec?'
p239
tp240
Rp241
ag9
(g13
S'|\xe6\x8a\xf5U\t\xec?'
p242
tp243
Rp244
ag9
(g13
S'\x84Cb\xd0\x15\xe3\xeb?'
p245
tp246
Rp247
ag9
(g13
S'\xe5\xb2\x9d0Uq\xec?'
p248
tp249
Rp250
ag9
(g13
S'\x92\xf1\xbe\xf1\xa9$\xec?'
p251
tp252
Rp253
ag9
(g13
S'\x89\x81\xbf\xe0\x0b\xee\xea?'
p254
tp255
Rp256
ag9
(g13
S'\x9a\xab\x82\x81\xc1\xf3\xeb?'
p257
tp258
Rp259
asg91
(lp260
F0.851373182552504
aF0.8470133811560214
aF0.8467966573816156
aF0.8608876200363353
aF0.8445276960128445
aF0.8331789919301494
aF0.8486559139784947
aF0.859328406586283
aF0.848303934871099
aF0.8463003264417845
aF0.8473841149362972
aF0.8564264977566641
aF0.8093274562775488
aF0.8521042084168337
aF0.8522291308374124
aF0.8095576731617125
aF0.8357737582543785
aF0.8463084550448882
aF0.852445976401962
aF0.8520346897931955
aF0.8478618421052632
aF0.8656987295825771
aF0.8552250592261121
aF0.8097131496733883
aF0.8497830802603037
asg93
(lp261
F0.0567699836867863
aF0.042577487765089725
aF0.06997227206002284
aF0.07665959876039798
aF0.06507910618169956
aF0.08026101141924959
aF0.05954323001631321
aF0.07845375958244985
aF0.053009297015168814
aF0.052519980427336486
aF0.05448613376835237
aF0.06769983686786298
aF0.043875387375632034
aF0.06149078453759582
aF0.06834121676724841
aF0.043556280587275696
aF0.02234910277324633
aF0.06312183983037024
aF0.06671016147447398
aF0.06246941771326048
aF0.0464926590538336
aF0.07455138662316477
aF0.07029848311857773
aF0.04436470396346436
aF0.05268308595661393
asg95
(lp262
F0.8070444104134763
aF0.7835630423685553
aF0.8147013782542113
aF0.846389385047206
aF0.80530747639704
aF0.8037263910158244
aF0.8057682491066871
aF0.8458397141398672
aF0.7976524623628477
aF0.7938249553457515
aF0.7978560490045942
aF0.8282286881061767
aF0.7263910158244002
aF0.8137279918346517
aF0.8218933401377903
aF0.7263910158244002
aF0.7429811128126595
aF0.8060234813680449
aF0.8203623373309518
aF0.814748660372544
aF0.7894333843797856
aF0.8522205206738132
aF0.8292496171516079
aF0.7274815003827507
aF0.7996937994386323
assS'log_reg'
p263
(dp264
g3
(lp265
F0.8877388535031847
aF0.884156050955414
aF0.8943178425714001
aF0.891044776119403
aF0.8875621890547264
aF0.8914211783439491
aF0.8954020700636943
aF0.8942183301821077
aF0.8869651741293533
aF0.8896517412935323
aF0.8871417197452229
aF0.8876393312101911
aF0.890038809831824
aF0.892636815920398
aF0.8940298507462686
aF0.8911226114649682
aF0.8939092356687898
aF0.8860583142601254
aF0.8951243781094528
aF0.888955223880597
aF0.8848527070063694
aF0.8891321656050956
aF0.8947158921285701
aF0.8877611940298508
aF0.8895522388059701
asg5
(lp266
F0.8805237315875614
aF0.8437343984023964
aF0.8712948517940717
aF0.8896247240618101
aF0.8721643981852149
aF0.8608629052846566
aF0.8779330345373055
aF0.8697228697228697
aF0.8733565870673464
aF0.8866263070996148
aF0.8918918918918919
aF0.8838425543627856
aF0.8554460449835735
aF0.8661681279009799
aF0.8632892057026477
aF0.8930957683741648
aF0.8709677419354839
aF0.8667019307061624
aF0.8721745908028059
aF0.8842884562654236
aF0.863768115942029
aF0.8772874058127018
aF0.8685567010309279
aF0.8774682174736272
aF0.8823849714130139
asg7
(lp267
g9
(g13
S'\xaf\xef\tI\xfc\t\xec?'
p268
tp269
Rp270
ag9
(g13
S'(\xdb\x8f\x7fE+\xec?'
p271
tp272
Rp273
ag9
(g13
S'\xad\x85\xb6k\x8ad\xec?'
p274
tp275
Rp276
ag9
(g13
S'\x04\x14i\xe6`\x1e\xec?'
p277
tp278
Rp279
ag9
(g13
S'R\x05\x04a\x96\x17\xec?'
p280
tp281
Rp282
ag9
(g13
S'\xab\x06\xdf\x06\x08Y\xec?'
p283
tp284
Rp285
ag9
(g13
S'\xf7\x1al-\xeac\xec?'
p286
tp287
Rp288
ag9
(g13
S'\xb6\xa6\xf9\x9a\x83f\xec?'
p289
tp290
Rp291
ag9
(g13
S'\xda\xe5bE\xad\x0e\xec?'
p292
tp293
Rp294
ag9
(g13
S'\xd0\xa8\xe9nE\x14\xec?'
p295
tp296
Rp297
ag9
(g13
S'\x8cL\x02\x82W\xef\xeb?'
p298
tp299
Rp300
ag9
(g13
S'd\xdf\xa0x\xe7\x02\xec?'
p301
tp302
Rp303
ag9
(g13
S'f\x9bE\xa8\xa4T\xec?'
p304
tp305
Rp306
ag9
(g13
S'\xe9\x80/d\xf9[\xec?'
p307
tp308
Rp309
ag9
(g13
S'\x96\x04\xa7\xdddq\xec?'
p310
tp311
Rp312
ag9
(g13
S'O*\x8c\xb9(\x19\xec?'
p313
tp314
Rp315
ag9
(g13
S'\x90\xfd\x93\xa9\xae`\xec?'
p316
tp317
Rp318
ag9
(g13
S'\xeb\xd83\x83*\x11\xec?'
p319
tp320
Rp321
ag9
(g13
S'\xa7r\xaa\t\xeck\xec?'
p322
tp323
Rp324
ag9
(g13
S'\xcfK\x8f\xd5\xb9\x10\xec?'
p325
tp326
Rp327
ag9
(g13
S'\x90\xb7\xf1Xx\t\xec?'
p328
tp329
Rp330
ag9
(g13
S'/\x82`qi\x1f\xec?'
p331
tp332
Rp333
ag9
(g13
S'd\xa3|\xf8an\xec?'
p334
tp335
Rp336
ag9
(g13
S'\x941A\xa1\xdf\x0f\xec?'
p337
tp338
Rp339
ag9
(g13
S'\xbbm\xfc\x8a\xc4\x1a\xec?'
p340
tp341
Rp342
asg91
(lp343
F0.8512658227848101
aF0.8531044926804645
aF0.8632148377125193
aF0.8548322948429007
aF0.8525958779024263
aF0.8607530312699424
aF0.8637012060692517
aF0.8633500449929297
aF0.851425582003662
aF0.8531709254600822
aF0.8481927710843373
aF0.8504833796848098
aF0.8596825396825398
aF0.8616134410670769
aF0.8642793424238563
aF0.8543275632490015
aF0.8626642617881989
aF0.851279386933368
aF0.8643151390319257
aF0.8524980174464711
aF0.8499935174380915
aF0.8540738800104793
aF0.864324185688638
aF0.851890756302521
aF0.8537934668071654
asg93
(lp344
F0.07145187601957585
aF0.10212071778140294
aF0.08073723699233404
aF0.06524221171097701
aF0.07812754852389496
aF0.08890701468189233
aF0.07553017944535073
aF0.08204208122655358
aF0.07698580981895287
aF0.0671994780623063
aF0.06264274061990212
aF0.06884176182707993
aF0.09329636274669711
aF0.08465176969499266
aF0.08758766922198663
aF0.06264274061990212
aF0.08091353996737358
aF0.08220518675583102
aF0.08024792040450171
aF0.06883053335508074
aF0.08433931484502447
aF0.07438825448613377
aF0.08318381993149568
aF0.07388680476268146
aF0.07046158864785516
asg95
(lp345
F0.8238897396630934
aF0.8626850433894845
aF0.8552833078101072
aF0.8226588415412095
aF0.833886195458025
aF0.8606431852986217
aF0.8499234303215927
aF0.857069933639612
aF0.830569022709875
aF0.8221485072722633
aF0.8085758039816233
aF0.8195507912200102
aF0.8639612046962736
aF0.8571064046950753
aF0.8652717529982138
aF0.8187850944359367
aF0.8545176110260337
aF0.8363961204696274
aF0.8565960704261291
aF0.8229140086756825
aF0.8366513527309852
aF0.8320571720265442
aF0.8601327207759061
aF0.827762184230671
aF0.8269966828272518
assS'naive_bayes'
p346
(dp347
g3
(lp348
F0.5208001592356688
aF0.5233877388535032
aF0.5229376057319136
aF0.5233830845771145
aF0.5218905472636816
aF0.522093949044586
aF0.5622014331210191
aF0.5210468703353568
aF0.5209950248756219
aF0.524179104477612
aF0.5208001592356688
aF0.5216958598726115
aF0.5613493879988058
aF0.5254726368159204
aF0.5216915422885572
aF0.5233877388535032
aF0.5208996815286624
aF0.5214449198925266
aF0.5221890547263681
aF0.5244776119402985
aF0.5237858280254777
aF0.5219944267515924
aF0.520250771221017
aF0.523681592039801
aF0.522686567164179
asg5
(lp349
F0.4486430779800756
aF0.4499827724819111
aF0.4497245179063361
aF0.4499942588127225
aF0.44922054103622194
aF0.44931192660550456
aF0.47108332331369485
aF0.4487458481273623
aF0.44875758616741096
aF0.45040799908056545
aF0.4486430779800756
aF0.44910591471801925
aF0.4705741052125871
aF0.4510819521178637
aF0.44911757964703186
aF0.4499827724819111
aF0.44869445716903344
aF0.4489515297353042
aF0.44937507166609336
aF0.45056334789606806
aF0.4501895897966219
aF0.44926040591675265
aF0.44833504977686234
aF0.4501493223064553
aF0.4496328591096833
asg7
(lp350
g9
(g13
S'?\xb569\xabn\xe3?'
p351
tp352
Rp353
ag9
(g13
S'\x881\xe7\xb0\n\x80\xe3?'
p354
tp355
Rp356
ag9
(g13
S'S7\xa1)9}\xe3?'
p357
tp358
Rp359
ag9
(g13
S'\x03\xb7\xdbF\xe5\x7f\xe3?'
p360
tp361
Rp362
ag9
(g13
S'0X@\xd9\xdfu\xe3?'
p363
tp364
Rp365
ag9
(g13
S'c\xf3\x0e\xf5Zw\xe3?'
p366
tp367
Rp368
ag9
(g13
S'\xc7y>\xb4\xa2\x84\xe4?'
p369
tp370
Rp371
ag9
(g13
S'\xd0X\xcb\x9e\x87p\xe3?'
p372
tp373
Rp374
ag9
(g13
S'\xe4\xb8|\x97\xdco\xe3?'
p375
tp376
Rp377
ag9
(g13
S'c\xb6P\x81=\x85\xe3?'
p378
tp379
Rp380
ag9
(g13
S'?\xb569\xabn\xe3?'
p381
tp382
Rp383
ag9
(g13
S'\x80\x91B\xbb\xaet\xe3?'
p384
tp385
Rp386
ag9
(g13
S'\x1bY..\x1a\x7f\xe4?'
p387
tp388
Rp389
ag9
(g13
S'^\xd5N\xe0\xec\x8d\xe3?'
p390
tp391
Rp392
ag9
(g13
S'X\x18\xa3\xca\x89t\xe3?'
p393
tp394
Rp395
ag9
(g13
S'\x881\xe7\xb0\n\x80\xe3?'
p396
tp397
Rp398
ag9
(g13
S'\xb8\xcd\xa9GVo\xe3?'
p399
tp400
Rp401
ag9
(g13
S'\x80\xd8\x05\xbc3s\xe3?'
p402
tp403
Rp404
ag9
(g13
S'\xf47,\xef\xe0w\xe3?'
p405
tp406
Rp407
ag9
(g13
S"'\x96<\x97>\x87\xe3?"
p408
tp409
Rp410
ag9
(g13
S'k\x93\xb3\xea\xb6\x82\xe3?'
p411
tp412
Rp413
ag9
(g13
S'\xea\xda\x9b\xe6\xafv\xe3?'
p414
tp415
Rp416
ag9
(g13
S'pYVd/k\xe3?'
p417
tp418
Rp419
ag9
(g13
S'\xc7\x96\xc7\\\xe6\x81\xe3?'
p420
tp421
Rp422
ag9
(g13
S'\x8fW\xb5\x138{\xe3?'
p423
tp424
Rp425
asg91
(lp426
F0.6193976760730376
aF0.6206732673267327
aF0.6204275534441805
aF0.6206841938549256
aF0.6199477972000317
aF0.6200348156353853
aF0.6404577033101757
aF0.6194956123013677
aF0.6195067973442934
aF0.6210776545166403
aF0.6193976760730376
aF0.6198386331276697
aF0.6399869323750408
aF0.6217180931228683
aF0.6198497429814156
aF0.6206732673267327
aF0.6194466403162056
aF0.6196915776986952
aF0.6200949367088607
aF0.6212253309027502
aF0.6208699786070835
aF0.6199857583669593
aF0.6191040530931501
aF0.6208316831683168
aF0.6203403244954492
asg93
(lp427
F0.7854812398042414
aF0.7812398042414356
aF0.7819279073560593
aF0.7812754852389496
aF0.7837220681781112
aF0.7833605220228385
aF0.7176182707993475
aF0.7850269124123308
aF0.7851900179416083
aF0.77997064100473
aF0.7854812398042414
aF0.7840130505709625
aF0.7189691730549665
aF0.7778502691241234
aF0.7840482792366661
aF0.7812398042414356
aF0.7853181076672104
aF0.784374490295221
aF0.7832327515902789
aF0.7794813244168978
aF0.7805872756933115
aF0.7835236541598695
aF0.7863317566465503
aF0.7807861686511173
aF0.7824172239438917
asg95
(lp428
F1.0
aF1.0
aF1.0
aF1.0
aF1.0
aF1.0
aF1.0
aF1.0
aF1.0
aF1.0
aF1.0
aF1.0
aF1.0
aF1.0
aF1.0
aF1.0
aF1.0
aF1.0
aF1.0
aF1.0
aF1.0
aF1.0
aF1.0
aF1.0
aF1.0
assS'ran_forest'
p429
(dp430
g3
(lp431
F0.8984872611464968
aF0.8983877388535032
aF0.9013832222111653
aF0.8997014925373135
aF0.8931343283582089
aF0.8988853503184714
aF0.9012738853503185
aF0.8998905363717783
aF0.8993034825870647
aF0.8944278606965174
aF0.8993829617834395
aF0.9011743630573248
aF0.8969051646930043
aF0.8954228855721393
aF0.8964179104477612
aF0.8991839171974523
aF0.8982882165605095
aF0.8984973629216837
aF0.8980099502487562
aF0.89681592039801
aF0.897890127388535
aF0.9008757961783439
aF0.8965071151358344
aF0.8988059701492538
aF0.8973134328358209
asg5
(lp432
F0.8853723404255319
aF0.9088343211967259
aF0.8930969648133226
aF0.8999725199230558
aF0.9014959074230878
aF0.8869333333333334
aF0.9118806306306306
aF0.8907675791733762
aF0.9038621839399833
aF0.8982720178372352
aF0.8870838881491345
aF0.8837575439517187
aF0.8875739644970414
aF0.885483870967742
aF0.8906080347448425
aF0.8948083718401739
aF0.8995584988962473
aF0.8805147058823529
aF0.8902373247033442
aF0.8888289260658392
aF0.8963815789473685
aF0.8832633788037776
aF0.8804865150713908
aF0.8902635825712749
aF0.897111416781293
asg7
(lp433
g9
(g13
S'\xbc\xb7kZ@x\xec?'
p434
tp435
Rp436
ag9
(g13
S'B[\xa2\xbbvN\xec?'
p437
tp438
Rp439
ag9
(g13
S'$\x81g\xcc)\x8a\xec?'
p440
tp441
Rp442
ag9
(g13
S'\xd0\x96\xad\x98\xbbk\xec?'
p443
tp444
Rp445
ag9
(g13
S'\xe5\x19\xe4}\x18!\xec?'
p446
tp447
Rp448
ag9
(g13
S'\x02\x0cg\xdb\xcay\xec?'
p449
tp450
Rp451
ag9
(g13
S'\x85\xcc\x82F\x02i\xec?'
p452
tp453
Rp454
ag9
(g13
S'\xc83O\xc2\xe0}\xec?'
p455
tp456
Rp457
ag9
(g13
S'\xd7\xafE\xbe\xc3`\xec?'
p458
tp459
Rp460
ag9
(g13
S'5\xfb@V\xb74\xec?'
p461
tp462
Rp463
ag9
(g13
S'\xbaGX\x02\x05\x7f\xec?'
p464
tp465
Rp466
ag9
(g13
S'{\xfd,C\x01\x99\xec?'
p467
tp468
Rp469
ag9
(g13
S'\x1a\xd8\x8cw\xaab\xec?'
p470
tp471
Rp472
ag9
(g13
S'\x04\x1f\xda\x81+V\xec?'
p473
tp474
Rp475
ag9
(g13
S'J\xfe"\xdb\xf2W\xec?'
p476
tp477
Rp478
ag9
(g13
S'\xcce\xd4\x82\xf8n\xec?'
p479
tp480
Rp481
ag9
(g13
S'\xa6M\xbd\xa2\xe2\\\xec?'
p482
tp483
Rp484
ag9
(g13
S'<g\xc6\xd2Z\x81\xec?'
p485
tp486
Rp487
ag9
(g13
S'\x06\xb8\x07\xfc-j\xec?'
p488
tp489
Rp490
ag9
(g13
S'\xec\xdd&\xe8\x85_\xec?'
p491
tp492
Rp493
ag9
(g13
S'{nT&\xfc]\xec?'
p494
tp495
Rp496
ag9
(g13
S'1Z\xe3\x84\x9f\x96\xec?'
p497
tp498
Rp499
ag9
(g13
S'\x16\x01\xc3hPk\xec?'
p500
tp501
Rp502
ag9
(g13
S'\xbf\xbe\xe0\x03\xebr\xec?'
p503
tp504
Rp505
ag9
(g13
S'\x9b\xe2\xebpkV\xec?'
p506
tp507
Rp508
asg91
(lp509
F0.8671529044021881
aF0.8631550730465085
aF0.8703049339091743
aF0.8666313839640116
aF0.8560707585097829
aF0.8675013041210224
aF0.8672021419009371
aF0.8683935112506541
aF0.865389731311519
aF0.8586652457706141
aF0.8682392805942916
aF0.8715228360719369
aF0.8643268727082241
aF0.862416546668412
aF0.8630803630145996
aF0.8666578912728709
aF0.8644921771413419
aF0.86797825524204
aF0.8656090205847646
aF0.8639999999999999
aF0.8643933386201428
aF0.8711513583441138
aF0.864935064935065
aF0.8668325258609402
aF0.8633836378077839
asg93
(lp510
F0.0703099510603589
aF0.05269168026101142
aF0.06491600065242212
aF0.05937041265698907
aF0.05692382971782743
aF0.06916802610114192
aF0.05106035889070147
aF0.0663839504159191
aF0.056434513129995104
aF0.05953351818626652
aF0.06916802610114192
aF0.07226753670473084
aF0.06817811123797096
aF0.06948295547219051
aF0.06573152829880934
aF0.0631321370309951
aF0.059380097879282216
aF0.07421301582123634
aF0.0663839504159191
aF0.0671994780623063
aF0.06166394779771615
aF0.07259380097879282
aF0.07372369923340401
aF0.06654705594519654
aF0.061001467949763494
asg95
(lp511
F0.8496681980602349
aF0.8218478815722308
aF0.8486472690148035
aF0.8356723653993365
aF0.815003827507017
aF0.8489025012761613
aF0.8266972945380296
aF0.8471158754466565
aF0.8300586884409288
aF0.8224036744067365
aF0.8501786625829505
aF0.8596222562531904
aF0.8422664624808576
aF0.840520540954325
aF0.837203368206175
aF0.8402246043899949
aF0.8320571720265442
aF0.8557937723328228
aF0.8423067108956367
aF0.840520540954325
aF0.8346094946401225
aF0.8593670239918325
aF0.8499234303215927
aF0.8446032151058943
aF0.8321000255167135
assS'dec_tree'
p512
(dp513
g3
(lp514
F0.8921178343949044
aF0.8912221337579618
aF0.850830928450592
aF0.8931343283582089
aF0.8993034825870647
aF0.8937101910828026
aF0.897890127388535
aF0.8994924868146085
aF0.8937313432835821
aF0.8951243781094528
aF0.8903264331210191
aF0.8950039808917197
aF0.8940193054035227
aF0.8967164179104478
aF0.878905472636816
aF0.9006767515923567
aF0.8930135350318471
aF0.888546123992437
aF0.8998009950248756
aF0.8981094527363184
aF0.8876393312101911
aF0.8986863057324841
aF0.8963080903572495
aF0.8956218905472637
aF0.8962189054726368
asg5
(lp515
F0.8670984455958549
aF0.8924701305918311
aF0.7749488520118208
aF0.8746378720042138
aF0.8970226714012565
aF0.8958333333333334
aF0.8787323205866946
aF0.8856763925729443
aF0.8742452087161985
aF0.8743140841390122
aF0.8490332176499752
aF0.8738574040219378
aF0.8735271013354281
aF0.8815894039735099
aF0.8476582604220277
aF0.8931071620893914
aF0.8674075988627552
aF0.8522155085599195
aF0.8909774436090225
aF0.880220646178093
aF0.874764848159097
aF0.9001103752759382
aF0.8731188375713544
aF0.8867924528301887
aF0.8806246691371096
asg7
(lp516
g9
(g13
S'0\xeb\x8b\x12GT\xec?'
p517
tp518
Rp519
ag9
(g13
S'E\xaa\xc0\x13V\x1b\xec?'
p520
tp521
Rp522
ag9
(g13
S'c47\xdbyV\xeb?'
p523
tp524
Rp525
ag9
(g13
S'\xd9\xd6\xf5A\xfcP\xec?'
p526
tp527
Rp528
ag9
(g13
S'x\x1e\xd7Htl\xec?'
p529
tp530
Rp531
ag9
(g13
S'h\x9e2\xf3\xf10\xec?'
p532
tp533
Rp534
ag9
(g13
S'\x90E"\xf0\x0c~\xec?'
p535
tp536
Rp537
ag9
(g13
S'\x89$\xb5\xae\xc0\x82\xec?'
p538
tp539
Rp540
ag9
(g13
S'\xb8\x9d1;cX\xec?'
p541
tp542
Rp543
ag9
(g13
S'\x03\xbf\x13+\xc6g\xec?'
p544
tp545
Rp546
ag9
(g13
S'\xac\x94\xaf\xd3\xace\xec?'
p547
tp548
Rp549
ag9
(g13
S'\x04W\xa5"Gg\xec?'
p550
tp551
Rp552
ag9
(g13
S'\x93Q\x92N\xe0\\\xec?'
p553
tp554
Rp555
ag9
(g13
S'\x13\xaf5\x05\xadk\xec?'
p556
tp557
Rp558
ag9
(g13
S'\x03l\xde\xc4D\xe7\xeb?'
p559
tp560
Rp561
ag9
(g13
S'\xac\x9b\x0b\xb5l\x82\xec?'
p562
tp563
Rp564
ag9
(g13
S'H\xf0\n\xbf\xaf]\xec?'
p565
tp566
Rp567
ag9
(g13
S'\x93<\xaa:\x9fJ\xec?'
p568
tp569
Rp570
ag9
(g13
S"'\xaf\xbd\x91\x9d|\xec?"
p571
tp572
Rp573
ag9
(g13
S'h+I\xb1\xb3}\xec?'
p574
tp575
Rp576
ag9
(g13
S'\xbeQ\xf0\xb9\x80\x13\xec?'
p577
tp578
Rp579
ag9
(g13
S'Hcj\x02P`\xec?'
p580
tp581
Rp582
ag9
(g13
S'\x05\x86\xfej/w\xec?'
p583
tp584
Rp585
ag9
(g13
S'C\x06\x12n\xffU\xec?'
p586
tp587
Rp588
ag9
(g13
S'P9\x13X\xf5g\xec?'
p589
tp590
Rp591
asg91
(lp592
F0.8606325533556184
aF0.8545962485033923
aF0.8197667428159193
aF0.8608087091757387
aF0.8664907651715039
aF0.8579409417398244
aF0.8673733195449844
aF0.8686264308012487
aF0.8618012422360248
aF0.8639297702039763
aF0.8614185110663983
aF0.8638182522266683
aF0.8623497479643273
aF0.8650896802703406
aF0.8440743113388853
aF0.8692348008385744
aF0.8619494028509053
aF0.8580481622306716
aF0.868245453356012
aF0.8674605229096558
aF0.8522057860976568
aF0.8650225404402014
aF0.8659289758106021
aF0.8624983615152707
aF0.8644926594777186
asg93
(lp593
F0.08368678629690049
aF0.0631321370309951
aF0.16147447398466808
aF0.07763823193606263
aF0.06149078453759582
aF0.061174551386623165
aF0.07553017944535073
aF0.07029848311857773
aF0.07812754852389496
aF0.07845375958244985
aF0.09934747145187602
aF0.07879282218597064
aF0.07877997064100473
aF0.0729081715870168
aF0.09655847333224596
aF0.06476345840130505
aF0.08368678629690049
aF0.09574294568585875
aF0.06622084488664166
aF0.07437612135051379
aF0.07601957585644371
aF0.05905383360522023
aF0.07975860381666938
aF0.06850432229652585
aF0.07356059370412657
asg95
(lp594
F0.8542623787646758
aF0.819806023481368
aF0.8700867789688617
aF0.8474100535850982
aF0.8379688696095943
aF0.8231240428790199
aF0.8563042368555386
aF0.8522205206738132
aF0.849706557795356
aF0.8537892319469252
aF0.874170495150587
aF0.854007146503318
aF0.8514548238897397
aF0.8491962235264098
aF0.840520540954325
aF0.8466054109239408
aF0.8565594691168964
aF0.8639612046962736
aF0.846644552181679
aF0.8550650676192907
aF0.830781010719755
aF0.8325676365492598
aF0.8588565594691169
aF0.8394998724164328
aF0.8489410563919367
ass.