(dp0
S'knn'
p1
(dp2
S'acc'
p3
(lp4
F0.7652269108280255
aF0.7674164012738853
aF0.7702258931236939
aF0.7650746268656716
aF0.7551243781094528
aF0.7732882165605095
aF0.7523885350318471
aF0.7671410090556274
aF0.7562189054726368
aF0.7755223880597015
aF0.7639331210191083
aF0.7640326433121019
aF0.7663449099412877
aF0.772636815920398
aF0.7727363184079602
aF0.7657245222929936
aF0.7542794585987261
aF0.7592795303015225
aF0.7621890547263681
aF0.7667661691542289
aF0.7718949044585988
aF0.777468152866242
aF0.7644541745447309
aF0.7714427860696518
aF0.7566169154228856
asS'pre'
p5
(lp6
F0.7112977602108037
aF0.7089118501775912
aF0.712868065723117
aF0.7027027027027027
aF0.7146838529872844
aF0.7177167297252838
aF0.7115818718527522
aF0.7084139264990329
aF0.716282320055905
aF0.7144233858014777
aF0.7159533073929961
aF0.7180669398907104
aF0.719516348773842
aF0.7185896374772389
aF0.7186362131744456
aF0.7120237506185056
aF0.7012454932808915
aF0.7172820246143179
aF0.7167521367521368
aF0.714594414893617
aF0.7143787656733431
aF0.7173104897365443
aF0.718531169940222
aF0.7133582210680084
aF0.7150537634408602
asS'auc'
p7
(lp8
cnumpy.core.multiarray
scalar
p9
(cnumpy
dtype
p10
(S'f8'
p11
I0
I1
tp12
Rp13
(I3
S'<'
p14
NNNI-1
I-1
I0
tp15
bS'\x02+\xa6\xa9K\xc6\xcd?'
p16
tp17
Rp18
ag9
(g13
S'\x98i\xd8\xee\xadv\xcd?'
p19
tp20
Rp21
ag9
(g13
S'$\x89\xa1\xdd\x0c\x1e\xcd?'
p22
tp23
Rp24
ag9
(g13
S'\x8aO\xe1E\xfe\xba\xcd?'
p25
tp26
Rp27
ag9
(g13
S'8P\x9e\xb0\xd3&\xcf?'
p28
tp29
Rp30
ag9
(g13
S'[D\xca\x0e\x97\xbd\xcc?'
p31
tp32
Rp33
ag9
(g13
S'm$\x04\xceD\x7f\xcf?'
p34
tp35
Rp36
ag9
(g13
S'4\xe9\xdc\x8b\x87\x7f\xcd?'
p37
tp38
Rp39
ag9
(g13
S'R\xe7\xf1:\n\x04\xcf?'
p40
tp41
Rp42
ag9
(g13
S'\xf4\xe0\xda\x9d\xffj\xcc?'
p43
tp44
Rp45
ag9
(g13
S'\xe6|\xb6\xa2\x0e\xfb\xcd?'
p46
tp47
Rp48
ag9
(g13
S'r}#\x9fT\xfb\xcd?'
p49
tp50
Rp51
ag9
(g13
S'8\xab\xefy\xdb\xae\xcd?'
p52
tp53
Rp54
ag9
(g13
S'\x16\xd1\x11az\xd5\xcc?'
p55
tp56
Rp57
ag9
(g13
S'L\x13\xaf\xea&\xd2\xcc?'
p58
tp59
Rp60
ag9
(g13
S'$\xbf1\xe4\x8f\xb6\xcd?'
p61
tp62
Rp63
ag9
(g13
S'\x02e\xdd~;+\xcf?'
p64
tp65
Rp66
ag9
(g13
S'{\xb58/\r\x9d\xce?'
p67
tp68
Rp69
ag9
(g13
S'_\xbc,\xb8<8\xce?'
p70
tp71
Rp72
ag9
(g13
S'\xa8K\x90T\x87\x97\xcd?'
p73
tp74
Rp75
ag9
(g13
S'\xa8\xa07.G\xe7\xcc?'
p76
tp77
Rp78
ag9
(g13
S'\xa4\xc2c-\xa0-\xcc?'
p79
tp80
Rp81
ag9
(g13
S'\xcfZE\x85\xec\xed\xcd?'
p82
tp83
Rp84
ag9
(g13
S'\xa7Wqf\xe8\xf4\xcc?'
p85
tp86
Rp87
ag9
(g13
S'|\xffW>K\xf4\xce?'
p88
tp89
Rp90
asS'f1'
p91
(lp92
F0.7854869509866329
aF0.7898192283478729
aF0.7914747584213854
aF0.7901892828579045
aF0.7692884597356332
aF0.7929843693202472
aF0.7671284163234744
aF0.7897574123989219
aF0.7699530516431925
aF0.7977044476327115
aF0.7811000369139903
aF0.7800760597347185
aF0.7825523245045379
aF0.7916476702835782
aF0.7917578409919767
aF0.7857662904987259
aF0.776095039448626
aF0.7738195418419822
aF0.7782108389012621
aF0.7857795649789799
aF0.7928790891017532
aF0.798776097912167
aF0.7804470828309061
aF0.7928204203120772
aF0.7712308267863824
asS'pf'
p93
(lp94
F0.34218231504977553
aF0.351942221354675
aF0.3445246925629514
aF0.367096018735363
aF0.319672131147541
aF0.3349599843841499
aF0.32422408744876047
aF0.3531134101112629
aF0.31693989071038253
aF0.3469945355191257
aF0.3277376537185243
aF0.32227210618778057
aF0.3214913136833886
aF0.3317720530835285
aF0.3317720530835285
aF0.3408159281670896
aF0.3558461838766348
aF0.31836814366582084
aF0.3233801717408275
aF0.33508977361436376
aF0.3423775131758735
aF0.3414015225453836
aF0.32168651180948665
aF0.3446526151444184
aF0.32064793130366903
asS'rec'
p95
(lp96
F0.8769543147208122
aF0.8915736040609137
aF0.8895655704425497
aF0.902557856272838
aF0.8329273244011368
aF0.8858883248730964
aF0.8320812182741116
aF0.892204628501827
aF0.832318311002842
aF0.9029638652050345
aF0.8592893401015228
aF0.8538071065989847
aF0.8576938692651238
aF0.8812423873325214
aF0.8814453917986196
aF0.8765482233502538
aF0.8688324873096447
aF0.8400324807145757
aF0.8511977263499797
aF0.8727161997563947
aF0.890761421319797
aF0.9011167512690356
aF0.8540397888753553
aF0.892204628501827
aF0.8369874137231019
assS'rbf_svm'
p97
(dp98
g3
(lp99
F0.777468152866242
aF0.7765724522292994
aF0.775798586924072
aF0.7782089552238806
aF0.7754228855721393
aF0.7805533439490446
aF0.775577229299363
aF0.7749029754204398
aF0.7732338308457711
aF0.7769154228855721
aF0.7740843949044586
aF0.7814490445859873
aF0.7719176037416658
aF0.7754228855721393
aF0.7721393034825871
aF0.7762738853503185
aF0.78125
aF0.7741068763061001
aF0.7751243781094528
aF0.7730348258706468
aF0.7761743630573248
aF0.7746815286624203
aF0.7763956612598268
aF0.7764179104477612
aF0.7754228855721393
asg5
(lp100
F0.7013628875243373
aF0.6985773562537048
aF0.6970948237723049
aF0.7111981205951449
aF0.7032749428789032
aF0.7074435631482612
aF0.7044410413476263
aF0.6978021978021978
aF0.698992632686814
aF0.7029643073200242
aF0.6987572989968558
aF0.7142408541372272
aF0.6960404882405478
aF0.6955311355311355
aF0.6926900584795321
aF0.7126290706910247
aF0.7138152736396425
aF0.6952366950896796
aF0.6959141681363904
aF0.6986033939029884
aF0.7002394492666866
aF0.6940352924019251
aF0.7056024558710667
aF0.7152498794793508
aF0.7004656752290822
asg7
(lp101
g9
(g13
S'\xa4b\x86\xfd\x1f\x0e\xcc?'
p102
tp103
Rp104
ag9
(g13
S'\x1d\x8b9\x1b\xec&\xcc?'
p105
tp106
Rp107
ag9
(g13
S'\xf1^\xd6{\xd4>\xcc?'
p108
tp109
Rp110
ag9
(g13
S'\xa5}/\x9a\xb6\x08\xcc?'
p111
tp112
Rp113
ag9
(g13
S'\x88\xff\x9c\xbfyX\xcc?'
p114
tp115
Rp116
ag9
(g13
S'\xa9\xb6\xbc\xd6\xc4\xb0\xcb?'
p117
tp118
Rp119
ag9
(g13
S'\xdb.\xee\x9f\x8fU\xcc?'
p120
tp121
Rp122
ag9
(g13
S'y\xa50\xbf1_\xcc?'
p123
tp124
Rp125
ag9
(g13
S'D\x01\x9e7\xb5\x9a\xcc?'
p126
tp127
Rp128
ag9
(g13
S'Ptva\x87$\xcc?'
p129
tp130
Rp131
ag9
(g13
S'\x8dC\xe4\x1e\xeb|\xcc?'
p132
tp133
Rp134
ag9
(g13
S'\xc2\xcf\xae\xcbm\x9f\xcb?'
p135
tp136
Rp137
ag9
(g13
S'\x1e\x16\xcel\x14\xc2\xcc?'
p138
tp139
Rp140
ag9
(g13
S'4\xef\xe5~\xc4G\xcc?'
p141
tp142
Rp143
ag9
(g13
S'\xcaC\x14\x1cq\xb2\xcc?'
p144
tp145
Rp146
ag9
(g13
S'\xab\x05\xf9\xe5\xd4M\xcc?'
p147
tp148
Rp149
ag9
(g13
S'"\x91\xb5}p\xa5\xcb?'
p150
tp151
Rp152
ag9
(g13
S'\xfe^\x83>\xf1t\xcc?'
p153
tp154
Rp155
ag9
(g13
S'\x85\xb5"\x00\xe7R\xcc?'
p156
tp157
Rp158
ag9
(g13
S'\xfdJ\xe6\xa1\xb7\xa0\xcc?'
p159
tp160
Rp161
ag9
(g13
S'\xefc\xa1\x0378\xcc?'
p162
tp163
Rp164
ag9
(g13
S'\xe7\x1eO\x9d\xe6]\xcc?'
p165
tp166
Rp167
ag9
(g13
S'`X\xac\xa4D<\xcc?'
p168
tp169
Rp170
ag9
(g13
S't=\xc5\xdd\xd5M\xcc?'
p171
tp172
Rp173
ag9
(g13
S'\x08hPB\x90R\xcc?'
p174
tp175
Rp176
asg91
(lp177
F0.8072746078262368
aF0.8076758331191638
aF0.8075510378406081
aF0.802935195827071
aF0.8035854146723523
aF0.8079435589234388
aF0.8031427324312527
aF0.8060034305317324
aF0.8031441651550488
aF0.8056855607557636
aF0.8043778007583591
aF0.805560474588277
aF0.8031604259704568
aF0.8079312398944771
aF0.805371409144994
aF0.7996434937611407
aF0.8055211466996991
aF0.8064461118690314
aF0.8073316283034953
aF0.8031074665515753
aF0.8062376152321874
aF0.8078424715667969
aF0.8036010838213443
aF0.7984572607408736
aF0.8051454718121385
asg93
(lp178
F0.389225063439391
aF0.39703298848331053
aF0.4009369510052703
aF0.3598750975800156
aF0.3801717408274785
aF0.3743900058559438
aF0.3767323833691197
aF0.39722818660940856
aF0.3907103825136612
aF0.3832943013270882
aF0.3927386297091548
aF0.35526058949834083
aF0.3985945734920945
aF0.4055425448868072
aF0.4102263856362217
aF0.3531134101112629
aF0.35623658012883075
aF0.40464571540113214
aF0.40378610460577674
aF0.3916861826697892
aF0.3909818465742729
aF0.4095256685535819
aF0.3743900058559438
aF0.34582357533177205
aF0.38914910226385635
asg95
(lp179
F0.9508629441624366
aF0.9571573604060913
aF0.9596021112464475
aF0.9218432805521721
aF0.9372716199756395
aF0.9417258883248731
aF0.934010152284264
aF0.9539179861956963
aF0.9437677628907836
aF0.9435647584246853
aF0.9476142131979696
aF0.9236548223350254
aF0.9492488834754365
aF0.9636622005684125
aF0.9618351603735282
aF0.9108629441624365
aF0.9242639593908629
aF0.9600081201786439
aF0.9612261469752335
aF0.9443767762890783
aF0.9500507614213198
aF0.9662944162436549
aF0.9332115306536743
aF0.9035728786033292
aF0.9466098254161591
assS'lin_svm'
p180
(dp181
g3
(lp182
F0.7688097133757962
aF0.7662221337579618
aF0.7689322320628919
aF0.7654726368159204
aF0.7659701492537313
aF0.7662221337579618
aF0.773984872611465
aF0.769827843566524
aF0.7774129353233831
aF0.7713432835820896
aF0.7657245222929936
aF0.7696058917197452
aF0.7711215046273261
aF0.7682587064676617
aF0.7702487562189054
aF0.7658240445859873
aF0.7627388535031847
aF0.7777888347099214
aF0.7695522388059701
aF0.7698507462686567
aF0.768312101910828
aF0.7661226114649682
aF0.7624639267588815
aF0.767363184079602
aF0.7697512437810945
asg5
(lp183
F0.7034083802376485
aF0.7097036795831977
aF0.6970935513169846
aF0.6941212029620674
aF0.6990411382616765
aF0.6919523099850968
aF0.7131384516543527
aF0.6980445657116872
aF0.7155683822350489
aF0.7042275411874417
aF0.6996428016772791
aF0.7000919963201472
aF0.7033137194177764
aF0.6968915845337377
aF0.7002908311648554
aF0.7039327624484618
aF0.6961556276053729
aF0.7154055351143817
aF0.6977872082449227
aF0.7046843177189409
aF0.6948237059264816
aF0.699272558427488
aF0.7153519932145886
aF0.6957639939485628
aF0.6984802431610942
asg7
(lp184
g9
(g13
S'\x1aC\x16\x06\x05<\xcd?'
p185
tp186
Rp187
ag9
(g13
S'\xe2\x0f\xa1\xdb+\xa1\xcd?'
p188
tp189
Rp190
ag9
(g13
S'\xff\xbb\x1e\xba\x1a+\xcd?'
p191
tp192
Rp193
ag9
(g13
S'\x02`\xf3qO\x9b\xcd?'
p194
tp195
Rp196
ag9
(g13
S'@\x1b\r|\xb4\x94\xcd?'
p197
tp198
Rp199
ag9
(g13
S'\xb0\xa2\xea\xfb\xa7|\xcd?'
p200
tp201
Rp202
ag9
(g13
S'\xf8j\x9a\x8eM\x9d\xcc?'
p203
tp204
Rp205
ag9
(g13
S'\xdb\xa9\x97>R\x0e\xcd?'
p206
tp207
Rp208
ag9
(g13
S'\xff%\x1epQ,\xcc?'
p209
tp210
Rp211
ag9
(g13
S'\xb6%\xd4K\xa0\xe6\xcc?'
p212
tp213
Rp214
ag9
(g13
S'D\xfc\xb8\xdcc\x9e\xcd?'
p215
tp216
Rp217
ag9
(g13
S'\xc6~\x08\xf4\xd1\x19\xcd?'
p218
tp219
Rp220
ag9
(g13
S'4p\x1a\xa3\xcd\xec\xcc?'
p221
tp222
Rp223
ag9
(g13
S'&\x97\x98\x0beA\xcd?'
p224
tp225
Rp226
ag9
(g13
S'\xf6(\xb1\xc6$\x04\xcd?'
p227
tp228
Rp229
ag9
(g13
S'\x04\n\xff\x88\xad\xa3\xcd?'
p230
tp231
Rp232
ag9
(g13
S'\xf8\xa6x\xcf\xd1\xfd\xcd?'
p233
tp234
Rp235
ag9
(g13
S'\xcf\x96gT{\x1f\xcc?'
p236
tp237
Rp238
ag9
(g13
S'\xb8%\x12\x8b\xcc\x16\xcd?'
p239
tp240
Rp241
ag9
(g13
S'x^\xc6w\xd4\x1a\xcd?'
p242
tp243
Rp244
ag9
(g13
S'\xa7-\xb7\xd6\t;\xcd?'
p245
tp246
Rp247
ag9
(g13
S'#E\xdf\x15\xed\x8f\xcd?'
p248
tp249
Rp250
ag9
(g13
S'\\-,\x81\x9b,\xce?'
p251
tp252
Rp253
ag9
(g13
S'\x022Kb\xc9]\xcd?'
p254
tp255
Rp256
ag9
(g13
S'\xda\rG\xa3n\x11\xcd?'
p257
tp258
Rp259
asg91
(lp260
F0.7948061125342284
aF0.7877473570073191
aF0.7986472424557752
aF0.7958069825868492
aF0.7935393258426966
aF0.798109153416416
aF0.7963411353241863
aF0.7992710231710493
aF0.7996058407238198
aF0.7977112676056338
aF0.7928546286518833
aF0.7977636061850267
aF0.7979620520028109
aF0.797847409079073
aF0.7984989964220263
aF0.7904906063574035
aF0.7909138747588141
aF0.8002147266708419
aF0.7990281152377647
aF0.7954726324166592
aF0.799137187230371
aF0.7936061830317934
aF0.7794104056926348
aF0.7973300970873787
aF0.7988875369372501
asg93
(lp261
F0.370290845207886
aF0.3480382588327152
aF0.3905914503220769
aF0.3950039032006245
aF0.3797814207650273
aF0.4034745266445442
aF0.3486238532110092
aF0.388834667187195
aF0.34621389539422326
aF0.37138953942232633
aF0.37751317587351163
aF0.38180753464766737
aF0.3739996096037478
aF0.3901249024199844
aF0.38212334113973456
aF0.36443490142494633
aF0.38414991216084327
aF0.34725746632832327
aF0.38914910226385635
aF0.36787665886026544
aF0.39703298848331053
aF0.3792699590083935
aF0.32754245559242634
aF0.39246682279469164
aF0.3871975019516003
asg95
(lp262
F0.913502538071066
aF0.8850761421319797
aF0.9348355663824605
aF0.9323995127892813
aF0.9175801867641088
aF0.942741116751269
aF0.9015228426395939
aF0.9348355663824605
aF0.9060089321965084
aF0.9198132358911896
aF0.9147208121827411
aF0.9271065989847715
aF0.9220462850182704
aF0.9330085261875761
aF0.9287454323995128
aF0.9013197969543147
aF0.9155329949238579
aF0.9078359723913926
aF0.9346325619163621
aF0.9131140885099472
aF0.9403045685279188
aF0.9173604060913706
aF0.8560698335363378
aF0.9336175395858709
aF0.9330085261875761
assS'log_reg'
p263
(dp264
g3
(lp265
F0.7701035031847133
aF0.7696058917197452
aF0.7690317444521843
aF0.76636815920398
aF0.7722388059701493
aF0.7709992038216561
aF0.7710987261146497
aF0.7707234550701563
aF0.7730348258706468
aF0.7725373134328358
aF0.7725915605095541
aF0.7668192675159236
aF0.7732112648024679
aF0.7728358208955224
aF0.7723383084577115
aF0.7689092356687898
aF0.7750796178343949
aF0.7697283311772316
aF0.762587064676617
aF0.7706467661691542
aF0.7661226114649682
aF0.7721934713375797
aF0.7703254055129863
aF0.7699502487562189
aF0.7713432835820896
asg5
(lp266
F0.7004445807143952
aF0.7032710280373832
aF0.7144739008727153
aF0.7035691724573594
aF0.7135222672064777
aF0.7101217168481743
aF0.7053669222343921
aF0.7063267233238905
aF0.7140313966661272
aF0.7157567832625041
aF0.7156862745098039
aF0.7057698437998088
aF0.7119974371295852
aF0.7134550153448554
aF0.705900718076803
aF0.7133956386292835
aF0.7126895450917797
aF0.7072357981593145
aF0.7019077901430842
aF0.7047336353694735
aF0.7064293730960398
aF0.713614262560778
aF0.70453125
aF0.704858934169279
aF0.7128279883381924
asg7
(lp267
g9
(g13
S'\xb6\xdcP\x9bq\t\xcd?'
p268
tp269
Rp270
ag9
(g13
S'BA\xe9\x9e` \xcd?'
p271
tp272
Rp273
ag9
(g13
S'Z\xd6\x10l\xedI\xcd?'
p274
tp275
Rp276
ag9
(g13
S'X\x07u\xdeD\x90\xcd?'
p277
tp278
Rp279
ag9
(g13
S'\x02\xe5\xa9\xfe\xe9\xd9\xcc?'
p280
tp281
Rp282
ag9
(g13
S'\x15\x82\xe0\xa7\x04\xfe\xcc?'
p283
tp284
Rp285
ag9
(g13
S'\x1c\xa2\xcc8N\xf1\xcc?'
p286
tp287
Rp288
ag9
(g13
S'}iU\x98\x80\x00\xcd?'
p289
tp290
Rp291
ag9
(g13
S'8\xa4_\x19\x90\xbf\xcc?'
p292
tp293
Rp294
ag9
(g13
S'\xc8\xd6p\xaa\xca\xd3\xcc?'
p295
tp296
Rp297
ag9
(g13
S'N\xbc=\x8b\xca\xd1\xcc?'
p298
tp299
Rp300
ag9
(g13
S'`\xb1\xdae\x1c\x85\xcd?'
p301
tp302
Rp303
ag9
(g13
S'\xcb\x16D\x80\x0c\xb6\xcc?'
p304
tp305
Rp306
ag9
(g13
S'g@\xdc\xb5P\xc5\xcc?'
p307
tp308
Rp309
ag9
(g13
S'u\xac\x07\xcf\xce\xc7\xcc?'
p310
tp311
Rp312
ag9
(g13
S'\xfe\xfc\x10\xbb\xd9K\xcd?'
p313
tp314
Rp315
ag9
(g13
S'\x1c\x9b\xfa\xc1\xe8v\xcc?'
p316
tp317
Rp318
ag9
(g13
S'\xb2:\x0f\xcer$\xcd?'
p319
tp320
Rp321
ag9
(g13
S'\xf4\xe0\xe8>\xea\x0e\xce?'
p322
tp323
Rp324
ag9
(g13
S'G>3B\x94\xff\xcc?'
p325
tp326
Rp327
ag9
(g13
S"\x846'\x92S\x9e\xcd?"
p328
tp329
Rp330
ag9
(g13
S'\x90S\x00a\xa0\xdb\xcc?'
p331
tp332
Rp333
ag9
(g13
S'\x98_\x08\xe4\x9b\n\xcd?'
p334
tp335
Rp336
ag9
(g13
S'8N/\xcf\xc2\x17\xcd?'
p337
tp338
Rp339
ag9
(g13
S'\n6\x8b\x8cU\xf7\xcc?'
p340
tp341
Rp342
asg91
(lp343
F0.7982180293501049
aF0.7959453503746143
aF0.7889808164378579
aF0.7914372002131818
aF0.7938023601477343
aF0.7939833467633629
aF0.7967479674796749
aF0.7957446808510639
aF0.7945970283656011
aF0.7930097790655561
aF0.793119058397465
aF0.7907848915081704
aF0.7959530844301191
aF0.7946388414140505
aF0.7980938933992234
aF0.7893686502177067
aF0.7980339588918678
aF0.7939080869255433
aF0.787268188302425
aF0.7965039286660193
aF0.7894642537179717
aF0.7936908517350157
aF0.7962210842309729
aF0.7955068105430746
aF0.7929729729729729
asg93
(lp344
F0.3814171383954714
aF0.3718524302166699
aF0.3384735506539137
aF0.3663153786104606
aF0.34523809523809523
aF0.35330860823736093
aF0.3675580714425142
aF0.3642397032988483
aF0.344847775175644
aF0.3393832943013271
aF0.33964473941050166
aF0.36033574077688857
aF0.35096623072418504
aF0.34621389539422326
aF0.36768149882903983
aF0.34120632441928556
aF0.35135662697638104
aF0.36014054265079054
aF0.3659250585480094
aF0.36885245901639346
aF0.3574077688854187
aF0.3449150888151474
aF0.3691196564512981
aF0.3674863387978142
aF0.34601873536299765
asg95
(lp345
F0.9277157360406091
aF0.916751269035533
aF0.8808363784003248
aF0.9043848964677222
aF0.8944376776289078
aF0.9003045685279187
aF0.9153299492385787
aF0.9110840438489647
aF0.8956557044254974
aF0.888956557044255
aF0.8893401015228426
aF0.8990862944162437
aF0.9023548518067398
aF0.8966707267559886
aF0.9179861956963054
aF0.8834517766497462
aF0.9065989847715736
aF0.9047909053999188
aF0.8962647178237921
aF0.9157531465692246
aF0.8946192893401015
aF0.894010152284264
aF0.915347137637028
aF0.912911084043849
aF0.8934226552984166
assS'naive_bayes'
p346
(dp347
g3
(lp348
F0.6100716560509554
aF0.6121616242038217
aF0.6098119215842372
aF0.6086567164179104
aF0.6120398009950249
aF0.6138535031847133
aF0.6076831210191083
aF0.6105085083092845
aF0.6097512437810946
aF0.6109452736318408
aF0.6100716560509554
aF0.6102707006369427
aF0.6081202109662653
aF0.6122388059701492
aF0.6120398009950249
aF0.6097730891719745
aF0.6115644904458599
aF0.6114041198129168
aF0.6091542288557213
aF0.6108457711442786
aF0.6111664012738853
aF0.580015923566879
aF0.6111055826450393
aF0.611044776119403
aF0.6078606965174129
asg5
(lp349
F0.8794272795779955
aF0.8813056379821959
aF0.879245283018868
aF0.8781416603198782
aF0.8812175204157386
aF0.8827838827838828
aF0.8772064466615502
aF0.8798798798798799
aF0.879154078549849
aF0.8802395209580839
aF0.8794272795779955
aF0.8796087283671934
aF0.8776758409785933
aF0.8813936249073387
aF0.8812175204157386
aF0.879154078549849
aF0.8807749627421758
aF0.8806860551826995
aF0.8786039453717754
aF0.8801498127340824
aF0.8804185351270553
aF0.7038750722961249
aF0.8804185351270553
aF0.8803290949887809
aF0.8773946360153256
asg7
(lp350
g9
(g13
S'\xa6dOh\xb8j\xd9?'
p351
tp352
Rp353
ag9
(g13
S'\xdc\x10\x8b<\xcaG\xd9?'
p354
tp355
Rp356
ag9
(g13
S'xr\xae\xbfpn\xd9?'
p357
tp358
Rp359
ag9
(g13
S'\xdf\xca\xab\xbdX\x82\xd9?'
p360
tp361
Rp362
ag9
(g13
S'k0\x1d\xe1\xcdI\xd9?'
p363
tp364
Rp365
ag9
(g13
S'\xa5\xb4\x10V\x83+\xd9?'
p366
tp367
Rp368
ag9
(g13
S' 2\x0b\x08\xa4\x92\xd9?'
p369
tp370
Rp371
ag9
(g13
S'3\xdaT\xa1\xccb\xd9?'
p372
tp373
Rp374
ag9
(g13
S'\x05\xb7\x8c\xb2\rp\xd9?'
p375
tp376
Rp377
ag9
(g13
S'FD<\xec\x18\\\xd9?'
p378
tp379
Rp380
ag9
(g13
S'\xa6dOh\xb8j\xd9?'
p381
tp382
Rp383
ag9
(g13
S'\xdch\xaa\xc5dg\xd9?'
p384
tp385
Rp386
ag9
(g13
S'\xb2\xbf\xf5-\xb6\x8a\xd9?'
p387
tp388
Rp389
ag9
(g13
S'\xa1r\xbajzF\xd9?'
p390
tp391
Rp392
ag9
(g13
S'k0\x1d\xe1\xcdI\xd9?'
p393
tp394
Rp395
ag9
(g13
S'U\xdeF\xdc\xb5o\xd9?'
p396
tp397
Rp398
ag9
(g13
S':\x04z$\xc5Q\xd9?'
p399
tp400
Rp401
ag9
(g13
S'#\x84\x98\x0c\xd5S\xd9?'
p402
tp403
Rp404
ag9
(g13
S'e\xf0\xb4\x15\x08z\xd9?'
p405
tp406
Rp407
ag9
(g13
S'+\xa3m\xa7\xc2]\xd9?'
p408
tp409
Rp410
ag9
(g13
S'\xce\xfb\xc3ilX\xd9?'
p411
tp412
Rp413
ag9
(g13
S'L\xdb.KlJ\xdb?'
p414
tp415
Rp416
ag9
(g13
S'\xd3\xa0,>\xd2X\xd9?'
p417
tp418
Rp419
ag9
(g13
S'`\xe5\n1oZ\xd9?'
p420
tp421
Rp422
ag9
(g13
S'\n\xc26\x97\xa6\x8f\xd9?'
p423
tp424
Rp425
asg91
(lp426
F0.37332053742802307
aF0.37876614060258246
aF0.37274036154215323
aF0.3696105145055298
aF0.3784473138849036
aF0.383147853736089
aF0.3670520231213873
aF0.3745605624800255
aF0.37248
aF0.37559885020760136
aF0.37332053742802307
aF0.3738407419251679
aF0.3683028553095925
aF0.37896414342629486
aF0.3784473138849036
aF0.37253960633701394
aF0.3772139779798947
aF0.3768948460188288
aF0.3709160794362588
aF0.3753394026513337
aF0.37617755069455533
aF0.365795010519988
aF0.376117496807152
aF0.37585821491298105
aF0.3675172524474402
asg93
(lp427
F0.031231700175678313
aF0.031231700175678313
aF0.031231700175678313
aF0.0312256049960968
aF0.0312256049960968
aF0.031231700175678313
aF0.031231700175678313
aF0.031231700175678313
aF0.0312256049960968
aF0.0312256049960968
aF0.031231700175678313
aF0.031231700175678313
aF0.031231700175678313
aF0.0312256049960968
aF0.0312256049960968
aF0.031231700175678313
aF0.031231700175678313
aF0.031231700175678313
aF0.0312256049960968
aF0.0312256049960968
aF0.031231700175678313
aF0.09994144056217061
aF0.031231700175678313
aF0.0312256049960968
aF0.0312256049960968
asg95
(lp428
F0.2369543147208122
aF0.24121827411167512
aF0.2365002030044661
aF0.23406414941128706
aF0.2409663012586277
aF0.24467005076142131
aF0.23208121827411168
aF0.23792123426715386
aF0.23629719853836784
aF0.2387332521315469
aF0.2369543147208122
aF0.23736040609137055
aF0.23304912708079578
aF0.2413723101908242
aF0.2409663012586277
aF0.23634517766497462
aF0.24
aF0.23974827446203817
aF0.2350791717417783
aF0.23853024766544864
aF0.23918781725888325
aF0.24710659898477158
aF0.2391392610637434
aF0.23893625659764514
aF0.232440113682501
assS'ran_forest'
p429
(dp430
g3
(lp431
F0.7757762738853503
aF0.7758757961783439
aF0.7778883470992138
aF0.7803980099502488
aF0.7781094527363184
aF0.7761743630573248
aF0.7761743630573248
aF0.7767937108169967
aF0.7772139303482587
aF0.7737313432835821
aF0.776671974522293
aF0.7781648089171974
aF0.7768932232062892
aF0.7771144278606965
aF0.7770149253731343
aF0.7807523885350318
aF0.7730891719745223
aF0.7769927355955817
aF0.7767164179104478
aF0.78
aF0.7754777070063694
aF0.7746815286624203
aF0.7793810329386008
aF0.7803980099502488
aF0.772636815920398
asg5
(lp432
F0.7064914992272024
aF0.7140797693416626
aF0.7156580211335255
aF0.7184637634581391
aF0.7156110044785668
aF0.7094552285535379
aF0.7143543735982057
aF0.7129703127480552
aF0.7118750985648952
aF0.7127045235803657
aF0.7046252480537323
aF0.7160949022122475
aF0.7090994079152384
aF0.7203807023301608
aF0.710985384252711
aF0.7169270003187759
aF0.7003484320557491
aF0.71552416118157
aF0.7060540872771973
aF0.7174435367611726
aF0.7059731440037043
aF0.7072752765228228
aF0.7117398780678443
aF0.7112665112665113
aF0.7128808640980171
asg7
(lp433
g9
(g13
S'\xf0 x\xb8\xe4R\xcc?'
p434
tp435
Rp436
ag9
(g13
S'h_\x9cf9^\xcc?'
p437
tp438
Rp439
ag9
(g13
S'W\x0c\x00\x18\x8a\x1c\xcc?'
p440
tp441
Rp442
ag9
(g13
S'=]Lh]\xcb\xcb?'
p443
tp444
Rp445
ag9
(g13
S'_\x9a\xd3\x97\x85\x14\xcc?'
p446
tp447
Rp448
ag9
(g13
S'\xbc\xd0\xbf\x86\x1dK\xcc?'
p449
tp450
Rp451
ag9
(g13
S'\xec\xb4.S\x80T\xcc?'
p452
tp453
Rp454
ag9
(g13
S'\xe2eqn\x08=\xcc?'
p455
tp456
Rp457
ag9
(g13
S'\xae*N\x8f(,\xcc?'
p458
tp459
Rp460
ag9
(g13
S'(Q 72\xa5\xcc?'
p461
tp462
Rp463
ag9
(g13
S'\xf7&\x94\x0fS0\xcc?'
p464
tp465
Rp466
ag9
(g13
S'j\xbeR\x99\x82\x13\xcc?'
p467
tp468
Rp469
ag9
(g13
S'\xfd\x0bm.)2\xcc?'
p470
tp471
Rp472
ag9
(g13
S'f\x19\x1f\xf6J?\xcc?'
p473
tp474
Rp475
ag9
(g13
S'\x00\x95M\xa9D1\xcc?'
p476
tp477
Rp478
ag9
(g13
S'\xaf\xf5M\x81_\xbc\xcb?'
p479
tp480
Rp481
ag9
(g13
S'q\xf0\xeb\x95\x8e\xa2\xcc?'
p482
tp483
Rp484
ag9
(g13
S';Rr9\xfc:\xcc?'
p485
tp486
Rp487
ag9
(g13
S'B\xb9\x05N\xbc1\xcc?'
p488
tp489
Rp490
ag9
(g13
S'%C\x11o \xd7\xcb?'
p491
tp492
Rp493
ag9
(g13
S'\xaa9\xe3"\x1a\\\xcc?'
p494
tp495
Rp496
ag9
(g13
S'r\xcb\x9b\x02\x0fz\xcc?'
p497
tp498
Rp499
ag9
(g13
S'a\xb7\xa3\xb0\xf3\xe1\xcb?'
p500
tp501
Rp502
ag9
(g13
S'mo!\xcd\xbd\xbd\xcb?'
p503
tp504
Rp505
ag9
(g13
S'\x94\xdcXR\x11\xcb\xcc?'
p506
tp507
Rp508
asg91
(lp509
F0.802281702501097
aF0.7983524355300861
aF0.8002148227712138
aF0.8020450264597722
aF0.8005009840758633
aF0.8012021568107488
aF0.7986030267753202
aF0.8001781737193763
aF0.8012780686961923
aF0.7962365591397849
aF0.8044614848379227
aF0.8003224939532383
aF0.8023624823695344
aF0.7967332123411978
aF0.8014881743289928
aF0.803286007679257
aF0.8021863612701718
aF0.7991035410129986
aF0.8037432219695646
aF0.8020413644910018
aF0.8021746755524377
aF0.800423131170663
aF0.8042038329064736
aF0.8057389314320924
aF0.7946805642914907
asg93
(lp510
F0.37068124146008197
aF0.34842865508491117
aF0.3466718719500293
aF0.34192037470725994
aF0.3469945355191257
aF0.3622877220378684
aF0.3480382588327152
aF0.35291821198516493
aF0.35655737704918034
aF0.34953161592505855
aF0.3777083739996096
aF0.3456958813195393
aF0.36443490142494633
aF0.3325526932084309
aF0.3588992974238876
aF0.3466718719500293
aF0.38610189342182316
aF0.3458910794456373
aF0.3733411397345824
aF0.3442622950819672
aF0.3718524302166699
aF0.3667772789381222
aF0.35994534452469257
aF0.3626073380171741
aF0.3475800156128025
asg95
(lp511
F0.9281218274111676
aF0.9051776649746193
aF0.9074299634591961
aF0.9076329679252944
aF0.9082419813235891
aF0.9202030456852792
aF0.9053807106598984
aF0.9116930572472595
aF0.9163621599675192
aF0.9019488428745432
aF0.937258883248731
aF0.907005076142132
aF0.9238733252131547
aF0.8911896061713358
aF0.9183922046285018
aF0.9132994923857868
aF0.9386802030456852
aF0.9047909053999188
aF0.9328055217214779
aF0.9092570036540804
aF0.9287309644670051
aF0.9218274111675127
aF0.9242793341453512
aF0.9291514413317093
aF0.8976857490864799
assS'dec_tree'
p512
(dp513
g3
(lp514
F0.7805533439490446
aF0.7776671974522293
aF0.7760971240919494
aF0.7756218905472637
aF0.777910447761194
aF0.7688097133757962
aF0.7783638535031847
aF0.7805751816101104
aF0.7738308457711442
aF0.7764179104477612
aF0.7753781847133758
aF0.7810509554140127
aF0.7766941984277043
aF0.7738308457711442
aF0.7785074626865671
aF0.7726910828025477
aF0.7745820063694268
aF0.7716190665737884
aF0.7770149253731343
aF0.781592039800995
aF0.7682125796178344
aF0.777468152866242
aF0.7811722559458653
aF0.7782089552238806
aF0.7727363184079602
asg5
(lp515
F0.7155309033280507
aF0.7144223107569722
aF0.7098494353826851
aF0.7124900556881464
aF0.7172580645161291
aF0.7129296235679214
aF0.7117074701820465
aF0.7157127001744094
aF0.7071038251366121
aF0.7077066211815786
aF0.7153001936733376
aF0.7197226253830027
aF0.7175535366645036
aF0.7118671138795719
aF0.7123309216734822
aF0.7084451460142068
aF0.7119859738603762
aF0.7095078834209269
aF0.7064431800707366
aF0.7175402262227178
aF0.7115384615384616
aF0.714879335144638
aF0.7174988036369437
aF0.7133364973896535
aF0.7052517091361094
asg7
(lp516
g9
(g13
S'\xe4\xb8\xcbc\x95\xc0\xcb?'
p517
tp518
Rp519
ag9
(g13
S'\x1a,>\x8fq!\xcc?'
p520
tp521
Rp522
ag9
(g13
S'\xd7\xc7g\x7f\xf1N\xcc?'
p523
tp524
Rp525
ag9
(g13
S'\xc6\xcen\xff\xf1c\xcc?'
p526
tp527
Rp528
ag9
(g13
S'@\x0f\x0b\x11c\x1e\xcc?'
p529
tp530
Rp531
ag9
(g13
S'"\x1e2\xe0gN\xcd?'
p532
tp533
Rp534
ag9
(g13
S'\xbea^\xef^\x04\xcc?'
p535
tp536
Rp537
ag9
(g13
S'u:\xb1\xfd\x8f\xc0\xcb?'
p538
tp539
Rp540
ag9
(g13
S'\xc3Cm\x16\xf2\x96\xcc?'
p541
tp542
Rp543
ag9
(g13
S'>pQ\xf2O?\xcc?'
p544
tp545
Rp546
ag9
(g13
S'\x9d\xc7"\xcb\x8eq\xcc?'
p547
tp548
Rp549
ag9
(g13
S'\x10k\xf7^G\xb7\xcb?'
p550
tp551
Rp552
ag9
(g13
S'S\xf3h\x9e\xedH\xcc?'
p553
tp554
Rp555
ag9
(g13
S'T\xab\x11\x073\xa0\xcc?'
p556
tp557
Rp558
ag9
(g13
S'\xd8\xd9~\xbe\xa9\x00\xcc?'
p559
tp560
Rp561
ag9
(g13
S'Y\x05\x94\xff\xb4\xc0\xcc?'
p562
tp563
Rp564
ag9
(g13
S'\xf9\x06o\x87\xa4\x86\xcc?'
p565
tp566
Rp567
ag9
(g13
S'\xf6\x8b\x99\x9a\xf0\xe7\xcc?'
p568
tp569
Rp570
ag9
(g13
S'\xfa\xdat\x86E(\xcc?'
p571
tp572
Rp573
ag9
(g13
S'\x88\xd9\xd0\xea\xc0\xa0\xcb?'
p574
tp575
Rp576
ag9
(g13
S'\xd3\xbd\x05\x0cO`\xcd?'
p577
tp578
Rp579
ag9
(g13
S'7G\x8d& )\xcc?'
p580
tp581
Rp582
ag9
(g13
S'p\x95=\x8bk\xaf\xcb?'
p583
tp584
Rp585
ag9
(g13
S'VV\xeav\xd3\x0c\xcc?'
p586
tp587
Rp588
ag9
(g13
S'B\xcd\xd0;\xd5\xb8\xcc?'
p589
tp590
Rp591
asg91
(lp592
F0.8037383177570093
aF0.8005357142857144
aF0.8009201911166166
aF0.7988582642047988
aF0.7993888189825634
aF0.7894879927503398
aF0.8028680180578914
aF0.8037033739873586
aF0.7993998764451505
aF0.8024615384615386
aF0.7970506249438
aF0.8022649649469711
aF0.7976555455365194
aF0.7968177348708323
aF0.8027295285359801
aF0.7971580817051509
aF0.7977497990892044
aF0.7951807228915662
aF0.8039198530055122
aF0.8040703383022404
aF0.7894403760961938
aF0.8000357717760688
aF0.8035730236712818
aF0.8018138170178715
aF0.7989790529836297
asg93
(lp593
F0.35038063634589106
aF0.3497950419675971
aF0.3611165332812805
aF0.35265417642466823
aF0.34211553473848555
aF0.3423775131758735
aF0.35857895764200665
aF0.3499902400936951
aF0.366120218579235
aF0.36787665886026544
aF0.3443294944368534
aF0.33925434315830566
aF0.33983993753659963
aF0.3520686963309914
aF0.35694769711163155
aF0.36053093890298654
aF0.35272301385906696
aF0.3560413820027328
aF0.37256049960967996
aF0.34601873536299765
aF0.34550068319344135
aF0.3482334569588132
aF0.3456958813195393
aF0.35362997658079626
aF0.3702185792349727
asg95
(lp594
F0.916751269035533
aF0.910253807106599
aF0.9187982135606984
aF0.9090539991879821
aF0.9027608607389362
aF0.8844670050761422
aF0.9208121827411168
aF0.9163621599675192
aF0.9194072269589931
aF0.926512383272432
aF0.8998984771573604
aF0.9061928934010153
aF0.8978887535525781
aF0.9047909053999188
aF0.9194072269589931
aF0.9112690355329949
aF0.907005076142132
aF0.9043848964677222
aF0.9326025172553796
aF0.9143321153065368
aF0.886497461928934
aF0.9082233502538071
aF0.9131140885099472
aF0.915347137637028
aF0.9214372716199757
ass.