(dp0
S'knn'
p1
(dp2
S'acc'
p3
(lp4
F0.9004862603188963
aF0.9080628745900713
aF0.9104477611940298
aF0.9043527416619559
aF0.9096664782362917
aF0.9061404500735045
aF0.9038787741716612
aF0.9148575305291723
aF0.9086489542114189
aF0.9079706048615037
aF0.9084021259753478
aF0.9082890421802555
aF0.911917684305744
aF0.9067269643866591
aF0.9048049745618993
aF0.9059142824833202
aF0.9042180255569376
aF0.9097693351424695
aF0.9060486150367439
aF0.9055963821368005
aF0.9048965283274907
aF0.9005993441139885
aF0.9046811397557666
aF0.9092142453363482
aF0.914527981910684
asS'pre'
p5
(lp6
F0.9224137931034483
aF0.9188022659832749
aF0.9148089171974523
aF0.92084360449192
aF0.9323725055432373
aF0.9157242864835756
aF0.9170744970092441
aF0.9336804604001097
aF0.9258143991240076
aF0.916331456154465
aF0.9211382113821138
aF0.9208886480628556
aF0.9289423339710303
aF0.9254675467546755
aF0.912798497451033
aF0.9163518618456556
aF0.9224209078404402
aF0.9137931034482759
aF0.9317673378076062
aF0.9266740453790814
aF0.9112536754878374
aF0.9229056498747564
aF0.9250760298589992
aF0.9322974472807991
aF0.9324582991523106
asS'pf'
p7
(lp8
F0.0566497461928934
aF0.061116751269035534
aF0.06516443361753958
aF0.05866829070239545
aF0.04953308972797402
aF0.06355329949238579
aF0.06192893401015229
aF0.04912708079577751
aF0.05501421031262688
aF0.06333739342265529
aF0.059086294416243655
aF0.05928934010152284
aF0.05278116118554608
aF0.05501421031262688
aF0.0659764514819326
aF0.06294416243654823
aF0.05725888324873096
aF0.0659764514819326
aF0.04953308972797402
aF0.053796183516037356
aF0.06741116751269036
aF0.056243654822335024
aF0.05501421031262688
aF0.04953308972797402
aF0.05014210312626878
asS'f1'
p9
(lp10
F0.8828852808091563
aF0.893377049180328
aF0.8969555035128807
aF0.8882430647291942
aF0.8938488109472565
aF0.8912473794549267
aF0.8880989994734071
aF0.9004889652438218
aF0.8932910723718965
aF0.8935669456066946
aF0.8935331230283912
aF0.8934156919437509
aF0.8971888610267916
aF0.8908007941760423
aF0.8898770599006017
aF0.8908709338929697
aF0.8878591288229842
aF0.8962018730489074
aF0.8891260840560374
aF0.8891543873622727
aF0.8901945423684554
aF0.8829716415923312
aF0.8881220968812209
aF0.8932606672869866
aF0.9002111932418163
asS'rec'
p11
(lp12
F0.8466054109239408
aF0.8693210821847882
aF0.8797856049004594
aF0.8578719060984945
aF0.8583822403674407
aF0.868044920877999
aF0.8608984175599795
aF0.869576314446146
aF0.8629752487879561
aF0.871906098494514
aF0.8675344563552833
aF0.8675344563552833
aF0.8675344563552833
aF0.8586374075019138
aF0.8680785914774177
aF0.8667687595712098
aF0.8557937723328228
aF0.8792751403777438
aF0.8502168920643021
aF0.8545547333503445
aF0.8700867789688617
aF0.846350178662583
aF0.854007146503318
aF0.8573615718295483
aF0.8701199285532023
assS'rbf_svm'
p13
(dp14
g3
(lp15
F0.9366730747483886
aF0.9336198122809002
aF0.9326096788783356
aF0.9371396269078576
aF0.9346523459581685
aF0.9339590636661766
aF0.9337328960759923
aF0.9361148801447309
aF0.9373657433578293
aF0.9344262295081968
aF0.9326020581250707
aF0.9322628067397942
aF0.9334011759384894
aF0.9382702091577162
aF0.9349915206331261
aF0.9337328960759923
aF0.9319235553545177
aF0.9320443238353686
aF0.9349915206331261
aF0.9391746749576032
aF0.9296618794526744
aF0.9406310075766142
aF0.9354364540931706
aF0.9343131712832109
aF0.9338609383832673
asg5
(lp16
F0.9520732364028002
aF0.939794032215474
aF0.9336814621409921
aF0.9504420037503348
aF0.9385665529010239
aF0.9520065075921909
aF0.9386519220642443
aF0.9495843389648699
aF0.9426466719284399
aF0.9427207637231504
aF0.9410515135422198
aF0.9483923263982708
aF0.9402274530547474
aF0.9436990265719547
aF0.9456289978678039
aF0.9495412844036697
aF0.9367755532139094
aF0.9405046480743692
aF0.9393063583815029
aF0.9501997336884155
aF0.9468546637744034
aF0.944692005242464
aF0.9440169806314672
aF0.9431757833244823
aF0.9424097664543525
asg7
(lp17
F0.03614213197969543
aF0.04629441624365482
aF0.05156313438895656
aF0.03755582622817702
aF0.047503045066991476
aF0.03593908629441624
aF0.04730964467005076
aF0.03816483962647178
aF0.04425497360941941
aF0.0438489646772229
aF0.0450761421319797
aF0.038781725888324875
aF0.04587900933820544
aF0.04344295574502639
aF0.04141291108404385
aF0.03796954314720812
aF0.048730964467005075
aF0.045473000406008934
aF0.04689403166869671
aF0.037961835160373526
aF0.039796954314720814
aF0.04284263959390863
aF0.04283394234673163
aF0.04344295574502639
aF0.04405196914332115
asg9
(lp18
F0.9266247379454926
aF0.9238157040882544
aF0.923076923076923
aF0.9273392577104025
aF0.9252070393374742
aF0.9232185117012885
aF0.9240539139450493
aF0.9261148162678173
aF0.9282383419689121
aF0.9245773732119635
aF0.9224362311296199
aF0.9213807586297414
aF0.9234965579945448
aF0.9292746113989637
aF0.9250423673575804
aF0.9231374606505771
aF0.9219600725952813
aF0.9217753481712873
aF0.9255663430420712
aF0.9298931456867345
aF0.9182224559558244
aF0.9321091426354585
aF0.925718745934695
aF0.9243981782693558
aF0.9238974892675946
asg11
(lp19
F0.9025012761613068
aF0.908371618172537
aF0.9127105666156202
aF0.9053329931104873
aF0.9122225057412605
aF0.8961204696273609
aF0.909903011740684
aF0.9037774374680959
aF0.9142638428170452
aF0.907119163051799
aF0.9045431342521695
aF0.8958652373660031
aF0.9073506891271057
aF0.9152845113549375
aF0.9053329931104873
aF0.8981623277182236
aF0.9076059213884635
aF0.9037774374680959
aF0.9122225057412605
aF0.910436335799949
aF0.891271056661562
aF0.9198570699336396
aF0.9081163859111792
aF0.9063536616483797
aF0.9060984945139066
assS'lin_svm'
p20
(dp21
g3
(lp22
F0.9227637679520525
aF0.9277394549361077
aF0.9262777023971054
aF0.9237987563595251
aF0.9259468626342566
aF0.9263824493950017
aF0.9269478683704625
aF0.923337856173677
aF0.9258338044092708
aF0.9260599208592425
aF0.9311319687888725
aF0.9253646952391722
aF0.926729986431479
aF0.9270774448841154
aF0.9258338044092708
aF0.9280787063213841
aF0.9264955331900938
aF0.9229986431478969
aF0.9249293386093839
aF0.9293386093838327
aF0.9275132873459233
aF0.9274002035508312
aF0.9285391225689733
aF0.9273035613340871
aF0.9237987563595251
asg5
(lp23
F0.9230970442061208
aF0.9281796813789501
aF0.92570385818561
aF0.9266368656323954
aF0.930379746835443
aF0.9368815191227601
aF0.930753027909426
aF0.9223149113660063
aF0.9324145242512589
aF0.9310800105624505
aF0.9311962470680218
aF0.9291359325605901
aF0.9362326574172892
aF0.9328397673188789
aF0.9290034183539311
aF0.9257913855734302
aF0.9250780437044746
aF0.9276089828269485
aF0.9313543599257885
aF0.9366383881230117
aF0.9349615078311654
aF0.9305993690851735
aF0.9310073452256034
aF0.9299212598425197
aF0.9270860752829692
asg7
(lp24
F0.05969543147208122
aF0.05583756345177665
aF0.05785627283800244
aF0.05663824604141291
aF0.0535931790499391
aF0.04791878172588832
aF0.0534010152284264
aF0.060495330897279743
aF0.05176613885505481
aF0.052984165651644335
aF0.053604060913705585
aF0.054619289340101525
aF0.048518067397482746
aF0.05156313438895656
aF0.05481120584652863
aF0.058071065989847716
aF0.05847715736040609
aF0.05562322371092164
aF0.05257815671944783
aF0.048518067397482746
aF0.049746192893401014
aF0.053604060913705585
aF0.05339017458384084
aF0.05420219244823386
aF0.056232237109216404
asg9
(lp25
F0.9117685053610645
aF0.9175164579837357
aF0.915914366778437
aF0.9127169127169127
aF0.9150564129166125
aF0.9149797570850203
aF0.9162778641783309
aF0.9125612587051846
aF0.9147165886635465
aF0.9151310667012719
aF0.9214700193423597
aF0.9144412756028001
aF0.9154709105139578
aF0.9162446435527853
aF0.915047915047915
aF0.9181677817807515
aF0.9162586962123165
aF0.9115928858886149
aF0.9136765470618825
aF0.9187361851514758
aF0.916590761223162
aF0.9168609168609169
aF0.9182406209573091
aF0.9168068314141545
aF0.9126716766001554
asg11
(lp26
F0.900714650331802
aF0.9070954568657479
aF0.9063297600816743
aF0.8992089818831335
aF0.9002296504210258
aF0.8940786115364983
aF0.902246043899949
aF0.9030117406840225
aF0.897677979076295
aF0.8997193161520796
aF0.9119448698315467
aF0.9002041858090862
aF0.8956100051046453
aF0.9002296504210258
aF0.9015054860933912
aF0.9106687085247576
aF0.9076059213884635
aF0.8961204696273609
aF0.8966573105384027
aF0.9015054860933912
aF0.8989280245022971
aF0.9035222052067381
aF0.9058192955589587
aF0.904057157438122
aF0.8986986476141873
assS'log_reg'
p27
(dp28
g3
(lp29
F0.9257039466244488
aF0.9254777790342644
aF0.9246947082767978
aF0.9262860373092142
aF0.9280949689089881
aF0.924573108673527
aF0.9236684383127898
aF0.9275214834916328
aF0.9279819106840023
aF0.9233465234595817
aF0.9258170304195409
aF0.9270609521655547
aF0.9253731343283582
aF0.9271905031091012
aF0.9280949689089881
aF0.9300011308379509
aF0.9243469410833428
aF0.9219810040705563
aF0.9249293386093839
aF0.9266252119841718
aF0.9229899355422369
aF0.9268347845753704
aF0.9272953414744459
aF0.9276427360090447
aF0.9270774448841154
asg5
(lp30
F0.9310071371927042
aF0.9282522996057818
aF0.9232170744403956
aF0.9261674928254631
aF0.9295995812614499
aF0.9147741770859913
aF0.9243653493849777
aF0.9276951187679457
aF0.9280125195618153
aF0.9355012093523246
aF0.9356303418803419
aF0.9294148517449489
aF0.9189814814814815
aF0.9247730220492867
aF0.9295995812614499
aF0.9341932087391419
aF0.9205280869790319
aF0.9229559748427673
aF0.9279516171443597
aF0.92578125
aF0.9278350515463918
aF0.9214120072146355
aF0.9344653754311488
aF0.9281796813789501
aF0.92875851231011
asg7
(lp31
F0.05299492385786802
aF0.05543147208121827
aF0.05988631749898498
aF0.057450263905805925
aF0.05460820138043037
aF0.06781725888324873
aF0.05868020304568528
aF0.056232237109216404
aF0.05602923264311815
aF0.048721071863580996
aF0.04893401015228426
aF0.054619289340101525
aF0.06394640682095006
aF0.05887129516849371
aF0.05460820138043037
aF0.050761421319796954
aF0.06233502538071066
aF0.05968331303288672
aF0.05562322371092164
aF0.05785627283800244
aF0.05543147208121827
aF0.06192893401015229
aF0.05014210312626878
aF0.0558262281770199
aF0.055217214778725134
asg9
(lp32
F0.9146864043630698
aF0.9146704648452674
aF0.9141752577319587
aF0.9158926728586172
aF0.9178294573643412
aF0.9148909021309175
aF0.9127794288667785
aF0.9172796489869662
aF0.9178382561589061
aF0.9112565445026176
aF0.9143826677107805
aF0.9165480657264847
aF0.9154496541122212
aF0.9171597633136096
aF0.9178294573643412
aF0.9197874821821952
aF0.9140213340187636
aF0.9107835531419705
aF0.914011914011914
aF0.9163552004124242
aF0.9115699259836385
aF0.9170406462366971
aF0.916352283075322
aF0.9173980382034073
aF0.9166343544009307
asg11
(lp33
F0.8989280245022971
aF0.9014803471158754
aF0.9053088310362429
aF0.9058433273794335
aF0.9063536616483797
aF0.9150076569678407
aF0.9014803471158754
aF0.9070954568657479
aF0.9078846644552182
aF0.888236795100791
aF0.8940786115364983
aF0.9040326697294538
aF0.9119448698315467
aF0.9096708343965297
aF0.9063536616483797
aF0.9058192955589587
aF0.9076059213884635
aF0.8989280245022971
aF0.9004848175554988
aF0.907119163051799
aF0.8958652373660031
aF0.9127105666156202
aF0.8989280245022971
aF0.9068639959173258
aF0.9048226588415412
assS'naive_bayes'
p34
(dp35
g3
(lp36
F0.6074861472351012
aF0.6064683930792717
aF0.5959972862957937
aF0.6126625211984171
aF0.6047484454494064
aF0.6057898903087188
aF0.6109917448829583
aF0.6004070556309362
aF0.6040700960994912
aF0.6134539287733183
aF0.6039805495872441
aF0.6054506389234423
aF0.6151062867480778
aF0.6056529112492934
aF0.6189937817976258
aF0.611444080063327
aF0.6071468958498247
aF0.6022161917684306
aF0.6058790276992652
aF0.6082532504239684
aF0.6090693203663915
aF0.6102001583173131
aF0.6047037539574853
aF0.6082532504239684
aF0.6072357263990955
asg5
(lp37
F0.530296868645791
aF0.529650690495532
aF0.5230645808263137
aF0.5336243350156868
aF0.5285694988518168
aF0.5292128753043008
aF0.5325524380277853
aF0.5257995162590702
aF0.5281642577333513
aF0.534106412005457
aF0.5280626011872639
aF0.5289982425307557
aF0.5352054794520548
aF0.5291413116970927
aF0.5376905121515859
aF0.5327712809355453
aF0.5301057770545159
aF0.5269541778975741
aF0.5293082442128063
aF0.5307921866521975
aF0.5312542372881356
aF0.5320626276378488
aF0.5285135135135135
aF0.5308005427408412
aF0.5301449668066658
asg7
(lp38
F0.7035532994923858
aF0.7053807106598985
aF0.7241169305724726
aF0.694072269589931
aF0.7084855866829071
aF0.7068020304568527
aF0.6968527918781726
aF0.716402760860739
aF0.7090946000812017
aF0.693260251725538
aF0.710253807106599
aF0.7074111675126904
aF0.6887941534713764
aF0.706861550954121
aF0.6835160373528217
aF0.6976649746192893
aF0.7035532994923858
aF0.7125456760048721
aF0.7058465286236297
aF0.7021924482338612
aF0.7019289340101523
aF0.6978680203045685
aF0.7082825822168087
aF0.7019894437677628
aF0.7040194884287454
asg9
(lp39
F0.6926958831341302
aF0.6921443736730359
aF0.686496446433272
aF0.6954666666666667
aF0.6912206323971031
aF0.6918316831683168
aF0.69449378330373
aF0.6889084507042255
aF0.6906906906906907
aF0.6960618721664149
aF0.6909090909090909
aF0.6916482545293858
aF0.6965591014441077
aF0.6917093866006717
aF0.6991608641314052
aF0.6951738821859474
aF0.6923485653560043
aF0.6897159992944083
aF0.6916681408101893
aF0.6931184128952264
aF0.6938811653236518
aF0.6939536535558909
aF0.6911115037992579
aF0.6930640446452299
aF0.6925663716814159
asg11
(lp40
F0.998468606431853
aF0.998468606431853
aF0.998468606431853
aF0.9982138300586885
aF0.9984689971931615
aF0.9987238386932108
aF0.9979581419091373
aF0.9987238386932108
aF0.9977034957897423
aF0.9989793314621077
aF0.9989790709545686
aF0.9987238386932108
aF0.9971924451250638
aF0.9984689971931615
aF0.9992344985965808
aF1.0
aF0.9977029096477795
aF0.9979581419091373
aF0.9977034957897423
aF0.9984689971931615
aF1.0
aF0.9974476773864216
aF0.9982133741704952
aF0.9982138300586885
aF0.9984689971931615
assS'ran_forest'
p41
(dp42
g3
(lp43
F0.9428926834784576
aF0.943231934863734
aF0.9474219810040706
aF0.9448275862068966
aF0.9447145279819107
aF0.947416035282144
aF0.9436842700441027
aF0.9456128448665763
aF0.9486715658564161
aF0.9490107405313737
aF0.9467375325115911
aF0.9476422028723284
aF0.947535052012664
aF0.9446014697569248
aF0.9484454494064444
aF0.9434581024539184
aF0.9468506163066832
aF0.9445952057892356
aF0.9466365178066705
aF0.9491237987563595
aF0.9489992084134343
aF0.94877304082325
aF0.9466304839439168
aF0.9474279253815715
aF0.9448275862068966
asg5
(lp44
F0.9442853423587607
aF0.9454877412623891
aF0.9573509933774834
aF0.9447757324345346
aF0.9657794676806084
aF0.954701079799842
aF0.9514255543822597
aF0.9574128293851477
aF0.9616306954436451
aF0.9626467449306296
aF0.9589880159786951
aF0.9488178747726682
aF0.9583333333333334
aF0.9527330340639029
aF0.9440882277507053
aF0.9715783664459161
aF0.9594882729211087
aF0.9463541666666667
aF0.9582557830364264
aF0.9541764859910972
aF0.9638747658549639
aF0.9589403973509933
aF0.9558201058201058
aF0.9513852587558809
aF0.9420252512239113
asg7
(lp45
F0.04345177664974619
aF0.04243654822335025
aF0.03268371904181892
aF0.043239951278928136
aF0.025578562728380026
aF0.034923857868020304
aF0.037360406091370556
aF0.032480714575720666
aF0.029232643118148598
aF0.028420625253755584
aF0.03126903553299493
aF0.04
aF0.0318717011774259
aF0.03633779943158749
aF0.04425497360941941
aF0.020913705583756347
aF0.030862944162436547
aF0.04181892001624036
aF0.0318717011774259
aF0.03552578156719448
aF0.027411167512690356
aF0.03147208121827411
aF0.033901745838408444
aF0.037758830694275276
aF0.045676004872107184
asg9
(lp46
F0.934914293079005
aF0.9352425180598556
aF0.939555440010399
aF0.9372427983539094
aF0.9356663596895145
aF0.9397278029812055
aF0.9353750324422527
aF0.9373289902280131
aF0.9408237747653806
aF0.9411764705882354
aF0.9386159259741953
aF0.9403888245139693
aF0.9396304970075461
aF0.9364131845315339
aF0.9416730621642364
aF0.933704587642535
aF0.938722294654498
aF0.9368393915957722
aF0.9385416666666667
aF0.9418454380976997
aF0.9410842586544742
aF0.941115299623034
aF0.9386853728241102
aF0.9399612653324725
aF0.9374358974358974
asg11
(lp47
F0.9257274119448698
aF0.9252169474221542
aF0.922409392547218
aF0.929829038019903
aF0.907374330186272
aF0.9252169474221542
aF0.9198570699336396
aF0.9180704441041347
aF0.9208981883133452
aF0.9206430211788722
aF0.9190913731495661
aF0.9321082184788158
aF0.9216436957631444
aF0.9206430211788722
aF0.939270221995407
aF0.8986727922409392
aF0.9188361408882083
aF0.9275140377743747
aF0.9196223526409798
aF0.929829038019903
aF0.919346605410924
aF0.923940786115365
aF0.9221541602858602
aF0.9288083694820107
aF0.93289104363358
assS'dec_tree'
p48
(dp49
g3
(lp50
F0.9413095103471673
aF0.9333936446907158
aF0.9365671641791045
aF0.9319389485585077
aF0.9362351611079706
aF0.9271740359606468
aF0.9258170304195409
aF0.931592039800995
aF0.9312605992085924
aF0.9323911814584511
aF0.9287572090919372
aF0.9292095442723057
aF0.9334011759384894
aF0.9330695308083663
aF0.925607687959299
aF0.9296618794526744
aF0.933506728485808
aF0.9257123473541384
aF0.9277557942340305
aF0.9343131712832109
aF0.930792717403596
aF0.9315843039692412
aF0.9341926729986432
aF0.9329564725833804
aF0.9329564725833804
asg5
(lp51
F0.9374517374517375
aF0.9200100933636134
aF0.9369955740692528
aF0.9253654783277764
aF0.9340232858990944
aF0.9193135245901639
aF0.9258485639686684
aF0.920751841503683
aF0.930783242258652
aF0.9300699300699301
aF0.9342313787638669
aF0.916076845298281
aF0.9223547323014464
aF0.931741500129769
aF0.9116384751325423
aF0.9161616161616162
aF0.9262672811059908
aF0.9332979006112144
aF0.9120603015075377
aF0.9314891416752844
aF0.9203967446592065
aF0.9201115901597768
aF0.9424403183023873
aF0.935796645702306
aF0.9306059036768514
asg7
(lp52
F0.04934010152284264
aF0.06436548223350254
aF0.04912708079577751
aF0.05907429963459196
aF0.05176613885505481
aF0.06395939086294417
aF0.05766497461928934
aF0.06333739342265529
aF0.053999187982135606
aF0.05481120584652863
aF0.05055837563451777
aF0.06741116751269036
aF0.06211936662606577
aF0.05339017458384084
aF0.07105156313438896
aF0.06741116751269036
aF0.05847715736040609
aF0.050954120990661794
aF0.07105156313438896
aF0.053796183516037356
aF0.06355329949238579
aF0.06395939086294417
aF0.04405196914332115
aF0.04973609419407227
aF0.05440519691433211
asg9
(lp53
F0.9334871203383314
aF0.9252632914604745
aF0.9276968681531126
aF0.9229982092606805
aF0.9275436793422405
aF0.9176681155714651
aF0.9153329891584925
aF0.922978994271165
aF0.9216696727647513
aF0.9231362467866324
aF0.9182242990654206
aF0.9204978409956819
aF0.9250540781269881
aF0.9238291302110139
aF0.9164974619289339
aF0.9210459507489209
aF0.9248466257668712
aF0.9144642624658248
aF0.9191036840106342
aF0.9253884679594195
aF0.9220382165605095
aF0.9230377814527414
aF0.9242976066597295
aF0.9233354880413704
aF0.9237887161033285
asg11
(lp54
F0.9295558958652373
aF0.9305768249106687
aF0.9185809086268504
aF0.9206430211788722
aF0.9211533554478183
aF0.9160285860132721
aF0.9050535987748851
aF0.9252169474221542
aF0.9127328400102067
aF0.9163051798928298
aF0.9027565084226646
aF0.9249617151607963
aF0.9277692700357325
aF0.9160500127583567
aF0.9214085225822914
aF0.9259826442062277
aF0.9234303215926493
aF0.8963757018887187
aF0.92625669813728
aF0.9193671855065068
aF0.9236855538540072
aF0.9259826442062277
aF0.90684022460439
aF0.9112018372033682
aF0.917070681296249
ass.