(dp0
S'AOL'
p1
(dp2
S'knn'
p3
(dp4
S'acc'
p5
(lp6
F0.6287425149700598
asS'pre'
p7
(lp8
F0.6142857142857143
asS'auc'
p9
(lp10
cnumpy.core.multiarray
scalar
p11
(cnumpy
dtype
p12
(S'f8'
p13
I0
I1
tp14
Rp15
(I3
S'<'
p16
NNNI-1
I-1
I0
tp17
bS'\x9c\x11\xcc\x87|\xcd\xe2?'
p18
tp19
Rp20
asS'f1'
p21
(lp22
F0.7350427350427351
asS'pf'
p23
(lp24
F0.7397260273972602
asS'rec'
p25
(lp26
F0.9148936170212766
assS'rbf_svm'
p27
(dp28
g5
(lp29
F0.6287425149700598
asg7
(lp30
F0.6142857142857143
asg9
(lp31
g11
(g15
S'\x9c\x11\xcc\x87|\xcd\xe2?'
p32
tp33
Rp34
asg21
(lp35
F0.7350427350427351
asg23
(lp36
F0.7397260273972602
asg25
(lp37
F0.9148936170212766
assS'lin_svm'
p38
(dp39
g5
(lp40
F0.6586826347305389
asg7
(lp41
F1.0
asg9
(lp42
g11
(g15
S'\xb9\x82\x98\\AL\xe6?'
p43
tp44
Rp45
asg21
(lp46
F0.5648854961832062
asg23
(lp47
F0.0
asg25
(lp48
F0.39361702127659576
assS'log_reg'
p49
(dp50
g5
(lp51
F0.562874251497006
asg7
(lp52
F0.562874251497006
asg9
(lp53
g11
(g15
S'\x00\x00\x00\x00\x00\x00\xe0?'
p54
tp55
Rp56
asg21
(lp57
F0.7203065134099617
asg23
(lp58
F1.0
asg25
(lp59
F1.0
assS'naive_bayes'
p60
(dp61
g5
(lp62
F0.6826347305389222
asg7
(lp63
F1.0
asg9
(lp64
g11
(g15
S'<\x1b\xf5\x9d\x8d\xfa\xe6?'
p65
tp66
Rp67
asg21
(lp68
F0.6074074074074074
asg23
(lp69
F0.0
asg25
(lp70
F0.43617021276595747
assS'ran_forest'
p71
(dp72
g5
(lp73
F0.6586826347305389
asg7
(lp74
F1.0
asg9
(lp75
g11
(g15
S'\xb9\x82\x98\\AL\xe6?'
p76
tp77
Rp78
asg21
(lp79
F0.5648854961832062
asg23
(lp80
F0.0
asg25
(lp81
F0.39361702127659576
assS'dec_tree'
p82
(dp83
g5
(lp84
F0.6586826347305389
asg7
(lp85
F1.0
asg9
(lp86
g11
(g15
S'\xb9\x82\x98\\AL\xe6?'
p87
tp88
Rp89
asg21
(lp90
F0.5648854961832062
asg23
(lp91
F0.0
asg25
(lp92
F0.39361702127659576
asssS'Apple'
p93
(dp94
g3
(dp95
g5
(lp96
F0.8266666666666667
asg7
(lp97
F1.0
asg9
(lp98
g11
(g15
S'\x0e\xa6\xc8g\xdd`\xea?'
p99
tp100
Rp101
asg21
(lp102
F0.7868852459016393
asg23
(lp103
F0.0
asg25
(lp104
F0.6486486486486487
assg27
(dp105
g5
(lp106
F0.8266666666666667
asg7
(lp107
F1.0
asg9
(lp108
g11
(g15
S'\x0e\xa6\xc8g\xdd`\xea?'
p109
tp110
Rp111
asg21
(lp112
F0.7868852459016393
asg23
(lp113
F0.0
asg25
(lp114
F0.6486486486486487
assg38
(dp115
g5
(lp116
F0.64
asg7
(lp117
F1.0
asg9
(lp118
g11
(g15
S'0E>\xeb\x06S\xe4?'
p119
tp120
Rp121
asg21
(lp122
F0.4255319148936171
asg23
(lp123
F0.0
asg25
(lp124
F0.2702702702702703
assg49
(dp125
g5
(lp126
F0.49333333333333335
asg7
(lp127
F0.49333333333333335
asg9
(lp128
g11
(g15
S'\x00\x00\x00\x00\x00\x00\xe0?'
p129
tp130
Rp131
asg21
(lp132
F0.6607142857142857
asg23
(lp133
F1.0
asg25
(lp134
F1.0
assg60
(dp135
g5
(lp136
F0.64
asg7
(lp137
F1.0
asg9
(lp138
g11
(g15
S'0E>\xeb\x06S\xe4?'
p139
tp140
Rp141
asg21
(lp142
F0.4255319148936171
asg23
(lp143
F0.0
asg25
(lp144
F0.2702702702702703
assg71
(dp145
g5
(lp146
F0.72
asg7
(lp147
F1.0
asg9
(lp148
g11
(g15
S'\xb4n0E>\xeb\xe6?'
p149
tp150
Rp151
asg21
(lp152
F0.6037735849056604
asg23
(lp153
F0.0
asg25
(lp154
F0.43243243243243246
assg82
(dp155
g5
(lp156
F0.64
asg7
(lp157
F1.0
asg9
(lp158
g11
(g15
S'0E>\xeb\x06S\xe4?'
p159
tp160
Rp161
asg21
(lp162
F0.4255319148936171
asg23
(lp163
F0.0
asg25
(lp164
F0.2702702702702703
asssS'PayPal'
p165
(dp166
g3
(dp167
g5
(lp168
F0.7903469079939668
asg7
(lp169
F0.9828178694158075
asg9
(lp170
g11
(g15
S'\xf2a\x9a\xaf\xe6\x90\xea?'
p171
tp172
Rp173
asg21
(lp174
F0.8045007032348804
asg23
(lp175
F0.0205761316872428
asg25
(lp176
F0.680952380952381
assg27
(dp177
g5
(lp178
F0.7963800904977375
asg7
(lp179
F0.9930795847750865
asg9
(lp180
g11
(g15
S'b\xd0\x9d\xad8\xcd\xea?'
p181
tp182
Rp183
asg21
(lp184
F0.8095909732016925
asg23
(lp185
F0.00823045267489712
asg25
(lp186
F0.6833333333333333
assg38
(dp187
g5
(lp188
F0.5957767722473605
asg7
(lp189
F1.0
asg9
(lp190
g11
(g15
S'\xa6\\\xca\xa5\\\xca\xe5?'
p191
tp192
Rp193
asg21
(lp194
F0.5314685314685315
asg23
(lp195
F0.0
asg25
(lp196
F0.3619047619047619
assg49
(dp197
g5
(lp198
F0.9457013574660633
asg7
(lp199
F0.9210526315789473
asg9
(lp200
g11
(g15
S'\x13\xdaKh/\xa1\xed?'
p201
tp202
Rp203
asg21
(lp204
F0.958904109589041
asg23
(lp205
F0.14814814814814814
asg25
(lp206
F1.0
assg60
(dp207
g5
(lp208
F0.6304675716440422
asg7
(lp209
F0.9888268156424581
asg9
(lp210
g11
(g15
S'V\rm\xa1u\x9c\xe6?'
p211
tp212
Rp213
asg21
(lp214
F0.5909849749582639
asg23
(lp215
F0.00823045267489712
asg25
(lp216
F0.42142857142857143
assg71
(dp217
g5
(lp218
F0.5957767722473605
asg7
(lp219
F1.0
asg9
(lp220
g11
(g15
S'\xa6\\\xca\xa5\\\xca\xe5?'
p221
tp222
Rp223
asg21
(lp224
F0.5314685314685315
asg23
(lp225
F0.0
asg25
(lp226
F0.3619047619047619
assg82
(dp227
g5
(lp228
F0.5957767722473605
asg7
(lp229
F1.0
asg9
(lp230
g11
(g15
S'\xa6\\\xca\xa5\\\xca\xe5?'
p231
tp232
Rp233
asg21
(lp234
F0.5314685314685315
asg23
(lp235
F0.0
asg25
(lp236
F0.3619047619047619
asssS'Yahoo'
p237
(dp238
g3
(dp239
g5
(lp240
F0.75
asg7
(lp241
F0.675
asg9
(lp242
g11
(g15
S'\xaeG\xe1z\x14\xae\xe7?'
p243
tp244
Rp245
asg21
(lp246
F0.8059701492537313
asg23
(lp247
F0.52
asg25
(lp248
F1.0
assg27
(dp249
g5
(lp250
F0.75
asg7
(lp251
F0.675
asg9
(lp252
g11
(g15
S'\xaeG\xe1z\x14\xae\xe7?'
p253
tp254
Rp255
asg21
(lp256
F0.8059701492537313
asg23
(lp257
F0.52
asg25
(lp258
F1.0
assg38
(dp259
g5
(lp260
F0.5961538461538461
asg7
(lp261
F1.0
asg9
(lp262
g11
(g15
S'\xe48\x8e\xe38\x8e\xe3?'
p263
tp264
Rp265
asg21
(lp266
F0.3636363636363636
asg23
(lp267
F0.0
asg25
(lp268
F0.2222222222222222
assg49
(dp269
g5
(lp270
F0.5192307692307693
asg7
(lp271
F0.5192307692307693
asg9
(lp272
g11
(g15
S'\x00\x00\x00\x00\x00\x00\xe0?'
p273
tp274
Rp275
asg21
(lp276
F0.6835443037974684
asg23
(lp277
F1.0
asg25
(lp278
F1.0
assg60
(dp279
g5
(lp280
F0.6346153846153846
asg7
(lp281
F1.0
asg9
(lp282
g11
(g15
S'\xdaKh/\xa1\xbd\xe4?'
p283
tp284
Rp285
asg21
(lp286
F0.45714285714285713
asg23
(lp287
F0.0
asg25
(lp288
F0.2962962962962963
assg71
(dp289
g5
(lp290
F0.5961538461538461
asg7
(lp291
F1.0
asg9
(lp292
g11
(g15
S'\xe48\x8e\xe38\x8e\xe3?'
p293
tp294
Rp295
asg21
(lp296
F0.3636363636363636
asg23
(lp297
F0.0
asg25
(lp298
F0.2222222222222222
assg82
(dp299
g5
(lp300
F0.5961538461538461
asg7
(lp301
F1.0
asg9
(lp302
g11
(g15
S'\xe48\x8e\xe38\x8e\xe3?'
p303
tp304
Rp305
asg21
(lp306
F0.3636363636363636
asg23
(lp307
F0.0
asg25
(lp308
F0.2222222222222222
asssS'Google'
p309
(dp310
g3
(dp311
g5
(lp312
F0.8585858585858586
asg7
(lp313
F0.9761904761904762
asg9
(lp314
g11
(g15
S'\xae< Y\xe7\xca\xeb?'
p315
tp316
Rp317
asg21
(lp318
F0.8541666666666667
asg23
(lp319
F0.022222222222222223
asg25
(lp320
F0.7592592592592593
assg27
(dp321
g5
(lp322
F0.8585858585858586
asg7
(lp323
F0.9761904761904762
asg9
(lp324
g11
(g15
S'\xae< Y\xe7\xca\xeb?'
p325
tp326
Rp327
asg21
(lp328
F0.8541666666666667
asg23
(lp329
F0.022222222222222223
asg25
(lp330
F0.7592592592592593
assg38
(dp331
g5
(lp332
F0.5959595959595959
asg7
(lp333
F0.9375
asg9
(lp334
g11
(g15
S'l\xc1\x16l\xc1\x16\xe4?'
p335
tp336
Rp337
asg21
(lp338
F0.42857142857142866
asg23
(lp339
F0.022222222222222223
asg25
(lp340
F0.2777777777777778
assg49
(dp341
g5
(lp342
F0.5454545454545454
asg7
(lp343
F0.5454545454545454
asg9
(lp344
g11
(g15
S'\x00\x00\x00\x00\x00\x00\xe0?'
p345
tp346
Rp347
asg21
(lp348
F0.7058823529411764
asg23
(lp349
F1.0
asg25
(lp350
F1.0
assg60
(dp351
g5
(lp352
F0.5959595959595959
asg7
(lp353
F0.9375
asg9
(lp354
g11
(g15
S'l\xc1\x16l\xc1\x16\xe4?'
p355
tp356
Rp357
asg21
(lp358
F0.42857142857142866
asg23
(lp359
F0.022222222222222223
asg25
(lp360
F0.2777777777777778
assg71
(dp361
g5
(lp362
F0.6161616161616161
asg7
(lp363
F0.9444444444444444
asg9
(lp364
g11
(g15
S'\xe8\xca\x03\x92u\xae\xe4?'
p365
tp366
Rp367
asg21
(lp368
F0.4722222222222222
asg23
(lp369
F0.022222222222222223
asg25
(lp370
F0.3148148148148148
assg82
(dp371
g5
(lp372
F0.5959595959595959
asg7
(lp373
F0.9375
asg9
(lp374
g11
(g15
S'l\xc1\x16l\xc1\x16\xe4?'
p375
tp376
Rp377
asg21
(lp378
F0.42857142857142866
asg23
(lp379
F0.022222222222222223
asg25
(lp380
F0.2777777777777778
asssS'Facebook'
p381
(dp382
g3
(dp383
g5
(lp384
F0.9637305699481865
asg7
(lp385
F0.989010989010989
asg9
(lp386
g11
(g15
S'\x10:*\xf0\xc5\xd5\xee?'
p387
tp388
Rp389
asg21
(lp390
F0.9625668449197862
asg23
(lp391
F0.010309278350515464
asg25
(lp392
F0.9375
assg27
(dp393
g5
(lp394
F0.9637305699481865
asg7
(lp395
F0.989010989010989
asg9
(lp396
g11
(g15
S'\x10:*\xf0\xc5\xd5\xee?'
p397
tp398
Rp399
asg21
(lp400
F0.9625668449197862
asg23
(lp401
F0.010309278350515464
asg25
(lp402
F0.9375
assg38
(dp403
g5
(lp404
F0.7823834196891192
asg7
(lp405
F1.0
asg9
(lp406
g11
(g15
S'\x00\x00\x00\x00\x00\x00\xe9?'
p407
tp408
Rp409
asg21
(lp410
F0.72
asg23
(lp411
F0.0
asg25
(lp412
F0.5625
assg49
(dp413
g5
(lp414
F0.49740932642487046
asg7
(lp415
F0.49740932642487046
asg9
(lp416
g11
(g15
S'\x00\x00\x00\x00\x00\x00\xe0?'
p417
tp418
Rp419
asg21
(lp420
F0.6643598615916955
asg23
(lp421
F1.0
asg25
(lp422
F1.0
assg60
(dp423
g5
(lp424
F0.8290155440414507
asg7
(lp425
F1.0
asg9
(lp426
g11
(g15
S'\x00\x00\x00\x00\x00\x80\xea?'
p427
tp428
Rp429
asg21
(lp430
F0.7924528301886793
asg23
(lp431
F0.0
asg25
(lp432
F0.65625
assg71
(dp433
g5
(lp434
F0.7823834196891192
asg7
(lp435
F1.0
asg9
(lp436
g11
(g15
S'\x00\x00\x00\x00\x00\x00\xe9?'
p437
tp438
Rp439
asg21
(lp440
F0.72
asg23
(lp441
F0.0
asg25
(lp442
F0.5625
assg82
(dp443
g5
(lp444
F0.7823834196891192
asg7
(lp445
F1.0
asg9
(lp446
g11
(g15
S'\x00\x00\x00\x00\x00\x00\xe9?'
p447
tp448
Rp449
asg21
(lp450
F0.72
asg23
(lp451
F0.0
asg25
(lp452
F0.5625
asss.